

Microchip MPLAB XC8 Assembler V2.50 build 20240725155939 
                                                                                               Sat Oct  5 23:31:31 2024

Microchip MPLAB XC8 C Compiler v2.50 (Free license) build 20240725155939 Og1 
     1                           	processor	18F45K50
     2                           	fnconf	rparam,??,?,0
     3                           	pagewidth 120
     4                           	opt	flic
     5                           	psect	mediumconst,global,reloc=2,class=MEDIUMCONST,space=0,delta=1,noexec
     6                           	psect	cinit,global,reloc=2,class=CODE,space=0,delta=1
     7                           	psect	cstackCOMRAM,global,class=COMRAM,space=1,delta=1,lowdata,noexec
     8                           	psect	text0,global,reloc=2,class=CODE,space=0,delta=1
     9                           	psect	text1,global,reloc=2,class=CODE,space=0,delta=1
    10                           	psect	text2,global,reloc=2,class=CODE,space=0,delta=1
    11                           	psect	text3,global,reloc=2,class=CODE,space=0,delta=1
    12                           	psect	text4,global,reloc=2,class=CODE,space=0,delta=1
    13                           	psect	text5,global,reloc=2,class=CODE,space=0,delta=1
    14                           	psect	intsave_regs,global,class=BIGRAM,space=1,delta=1,noexec
    15                           	psect	rparam,global,class=COMRAM,space=1,delta=1,noexec
    16                           	psect	config,global,abs,ovrld,class=CONFIG,space=4,delta=1,noexec
    17   000000                     
    18                           ; Generated 12/10/2023 GMT
    19                           ; 
    20                           ; Copyright © 2023, Microchip Technology Inc. and its subsidiaries ("Microchip")
    21                           ; All rights reserved.
    22                           ; 
    23                           ; This software is developed by Microchip Technology Inc. and its subsidiaries ("Microch
      +                          ip").
    24                           ; 
    25                           ; Redistribution and use in source and binary forms, with or without modification, are
    26                           ; permitted provided that the following conditions are met:
    27                           ; 
    28                           ;     1. Redistributions of source code must retain the above copyright notice, this lis
      +                          t of
    29                           ;        conditions and the following disclaimer.
    30                           ; 
    31                           ;     2. Redistributions in binary form must reproduce the above copyright notice, this 
      +                          list
    32                           ;        of conditions and the following disclaimer in the documentation and/or other
    33                           ;        materials provided with the distribution. Publication is not required when
    34                           ;        this file is used in an embedded application.
    35                           ; 
    36                           ;     3. Microchip's name may not be used to endorse or promote products derived from th
      +                          is
    37                           ;        software without specific prior written permission.
    38                           ; 
    39                           ; THIS SOFTWARE IS PROVIDED BY MICROCHIP "AS IS" AND ANY EXPRESS OR IMPLIED WARRANTIES,
    40                           ; INCLUDING, BUT NOT LIMITED TO, THE IMPLIED WARRANTIES OF MERCHANTABILITY AND FITNESS F
      +                          OR
    41                           ; PURPOSE ARE DISCLAIMED.  IN NO EVENT SHALL MICROCHIP BE LIABLE FOR ANY DIRECT, INDIREC
      +                          T,
    42                           ; INCIDENTAL, SPECIAL, EXEMPLARY, OR CONSEQUENTIAL DAMAGES (INCLUDING BUT NOT LIMITED TO
    43                           ; PROCUREMENT OF SUBSTITUTE GOODS OR SERVICES; LOSS OF USE, DATA OR PROFITS; OR BUSINESS
    44                           ; INTERRUPTION) HOWSOEVER CAUSED AND ON ANY THEORY OF LIABILITY, WHETHER IN CONTRACT, ST
      +                          RICT
    45                           ; LIABILITY, OR TORT (INCLUDING NEGLIGENCE OR OTHERWISE) ARISING IN ANY WAY OUT OF THE U
      +                          SE OF
    46                           ; THIS SOFTWARE, EVEN IF ADVISED OF THE POSSIBILITY OF SUCH DAMAGE.
    47                           ; 
    48                           ; 
    49                           ; Code-generator required, PIC18F45K50 Definitions
    50                           ; 
    51                           ; SFR Addresses
    52   000FE0                     bsr             equ	4064
    53   000FE9                     fsr0            equ	4073
    54   000FEA                     fsr0h           equ	4074
    55   000FE9                     fsr0l           equ	4073
    56   000FE1                     fsr1            equ	4065
    57   000FE2                     fsr1h           equ	4066
    58   000FE1                     fsr1l           equ	4065
    59   000FD9                     fsr2            equ	4057
    60   000FDA                     fsr2h           equ	4058
    61   000FD9                     fsr2l           equ	4057
    62   000FEF                     indf0           equ	4079
    63   000FE7                     indf1           equ	4071
    64   000FDF                     indf2           equ	4063
    65   000FF2                     intcon          equ	4082
    66   000000                     nvmcon          equ	0
    67   000FF9                     pcl             equ	4089
    68   000FFA                     pclath          equ	4090
    69   000FFB                     pclatu          equ	4091
    70   000FEB                     plusw0          equ	4075
    71   000FE3                     plusw1          equ	4067
    72   000FDB                     plusw2          equ	4059
    73   000FED                     postdec0        equ	4077
    74   000FE5                     postdec1        equ	4069
    75   000FDD                     postdec2        equ	4061
    76   000FEE                     postinc0        equ	4078
    77   000FE6                     postinc1        equ	4070
    78   000FDE                     postinc2        equ	4062
    79   000FEC                     preinc0         equ	4076
    80   000FE4                     preinc1         equ	4068
    81   000FDC                     preinc2         equ	4060
    82   000FF3                     prod            equ	4083
    83   000FF4                     prodh           equ	4084
    84   000FF3                     prodl           equ	4083
    85   000FD8                     status          equ	4056
    86   000FF5                     tablat          equ	4085
    87   000FF6                     tblptr          equ	4086
    88   000FF7                     tblptrh         equ	4087
    89   000FF6                     tblptrl         equ	4086
    90   000FF8                     tblptru         equ	4088
    91   000FFD                     tosl            equ	4093
    92   000FE8                     wreg            equ	4072
    93   000F57                     SRCON1          equ	3927	;# 
    94   000F58                     SRCON0          equ	3928	;# 
    95   000F59                     CCPTMRS         equ	3929	;# 
    96   000F5A                     VREGCON         equ	3930	;# 
    97   000F5B                     ANSELA          equ	3931	;# 
    98   000F5C                     ANSELB          equ	3932	;# 
    99   000F5D                     ANSELC          equ	3933	;# 
   100   000F5E                     ANSELD          equ	3934	;# 
   101   000F5F                     ANSELE          equ	3935	;# 
   102   000F60                     UCON            equ	3936	;# 
   103   000F61                     USTAT           equ	3937	;# 
   104   000F62                     UCFG            equ	3938	;# 
   105   000F63                     UADDR           equ	3939	;# 
   106   000F64                     UIE             equ	3940	;# 
   107   000F65                     UIR             equ	3941	;# 
   108   000F66                     UEIE            equ	3942	;# 
   109   000F67                     UEIR            equ	3943	;# 
   110   000F68                     UFRM            equ	3944	;# 
   111   000F68                     UFRML           equ	3944	;# 
   112   000F69                     UFRMH           equ	3945	;# 
   113   000F6A                     UEP0            equ	3946	;# 
   114   000F6B                     UEP1            equ	3947	;# 
   115   000F6C                     UEP2            equ	3948	;# 
   116   000F6D                     UEP3            equ	3949	;# 
   117   000F6E                     UEP4            equ	3950	;# 
   118   000F6F                     UEP5            equ	3951	;# 
   119   000F70                     UEP6            equ	3952	;# 
   120   000F71                     UEP7            equ	3953	;# 
   121   000F72                     UEP8            equ	3954	;# 
   122   000F73                     UEP9            equ	3955	;# 
   123   000F74                     UEP10           equ	3956	;# 
   124   000F75                     UEP11           equ	3957	;# 
   125   000F76                     UEP12           equ	3958	;# 
   126   000F77                     UEP13           equ	3959	;# 
   127   000F78                     UEP14           equ	3960	;# 
   128   000F79                     UEP15           equ	3961	;# 
   129   000F7A                     SLRCON          equ	3962	;# 
   130   000F7B                     VREFCON2        equ	3963	;# 
   131   000F7C                     VREFCON1        equ	3964	;# 
   132   000F7D                     VREFCON0        equ	3965	;# 
   133   000F7E                     PMD0            equ	3966	;# 
   134   000F7F                     PMD1            equ	3967	;# 
   135   000F80                     PORTA           equ	3968	;# 
   136   000F81                     PORTB           equ	3969	;# 
   137   000F82                     PORTC           equ	3970	;# 
   138   000F83                     PORTD           equ	3971	;# 
   139   000F84                     PORTE           equ	3972	;# 
   140   000F85                     WPUB            equ	3973	;# 
   141   000F86                     IOCB            equ	3974	;# 
   142   000F87                     IOCC            equ	3975	;# 
   143   000F88                     CTMUICON        equ	3976	;# 
   144   000F89                     LATA            equ	3977	;# 
   145   000F8A                     LATB            equ	3978	;# 
   146   000F8B                     LATC            equ	3979	;# 
   147   000F8C                     LATD            equ	3980	;# 
   148   000F8D                     LATE            equ	3981	;# 
   149   000F8E                     CTMUCONL        equ	3982	;# 
   150   000F8E                     CTMUCON1        equ	3982	;# 
   151   000F8F                     CTMUCONH        equ	3983	;# 
   152   000F8F                     CTMUCON0        equ	3983	;# 
   153   000F90                     CCPR2           equ	3984	;# 
   154   000F90                     CCPR2L          equ	3984	;# 
   155   000F91                     CCPR2H          equ	3985	;# 
   156   000F92                     TRISA           equ	3986	;# 
   157   000F92                     DDRA            equ	3986	;# 
   158   000F93                     TRISB           equ	3987	;# 
   159   000F93                     DDRB            equ	3987	;# 
   160   000F94                     TRISC           equ	3988	;# 
   161   000F94                     DDRC            equ	3988	;# 
   162   000F95                     TRISD           equ	3989	;# 
   163   000F95                     DDRD            equ	3989	;# 
   164   000F96                     TRISE           equ	3990	;# 
   165   000F96                     DDRE            equ	3990	;# 
   166   000F97                     CCP2CON         equ	3991	;# 
   167   000F97                     ECCP2CON        equ	3991	;# 
   168   000F98                     CM1CON0         equ	3992	;# 
   169   000F99                     CM2CON0         equ	3993	;# 
   170   000F9A                     CM2CON1         equ	3994	;# 
   171   000F9B                     OSCTUNE         equ	3995	;# 
   172   000F9C                     HLVDCON         equ	3996	;# 
   173   000F9D                     PIE1            equ	3997	;# 
   174   000F9E                     PIR1            equ	3998	;# 
   175   000F9F                     IPR1            equ	3999	;# 
   176   000FA0                     PIE2            equ	4000	;# 
   177   000FA1                     PIR2            equ	4001	;# 
   178   000FA2                     IPR2            equ	4002	;# 
   179   000FA3                     PIE3            equ	4003	;# 
   180   000FA4                     PIR3            equ	4004	;# 
   181   000FA5                     IPR3            equ	4005	;# 
   182   000FA6                     EECON1          equ	4006	;# 
   183   000FA7                     EECON2          equ	4007	;# 
   184   000FA8                     EEDATA          equ	4008	;# 
   185   000FA9                     EEADR           equ	4009	;# 
   186   000FAB                     RCSTA1          equ	4011	;# 
   187   000FAB                     RCSTA           equ	4011	;# 
   188   000FAC                     TXSTA1          equ	4012	;# 
   189   000FAC                     TXSTA           equ	4012	;# 
   190   000FAD                     TXREG1          equ	4013	;# 
   191   000FAD                     TXREG           equ	4013	;# 
   192   000FAE                     RCREG1          equ	4014	;# 
   193   000FAE                     RCREG           equ	4014	;# 
   194   000FAF                     SPBRG1          equ	4015	;# 
   195   000FAF                     SPBRG           equ	4015	;# 
   196   000FB0                     SPBRGH1         equ	4016	;# 
   197   000FB0                     SPBRGH          equ	4016	;# 
   198   000FB1                     T3CON           equ	4017	;# 
   199   000FB2                     TMR3            equ	4018	;# 
   200   000FB2                     TMR3L           equ	4018	;# 
   201   000FB3                     TMR3H           equ	4019	;# 
   202   000FB4                     T3GCON          equ	4020	;# 
   203   000FB5                     ACTCON          equ	4021	;# 
   204   000FB5                     STCON           equ	4021	;# 
   205   000FB6                     ECCP1AS         equ	4022	;# 
   206   000FB7                     PWM1CON         equ	4023	;# 
   207   000FB7                     ECCP1DEL        equ	4023	;# 
   208   000FB8                     BAUDCON1        equ	4024	;# 
   209   000FB8                     BAUDCON         equ	4024	;# 
   210   000FB8                     BAUDCTL         equ	4024	;# 
   211   000FB9                     PSTR1CON        equ	4025	;# 
   212   000FBA                     T2CON           equ	4026	;# 
   213   000FBB                     PR2             equ	4027	;# 
   214   000FBC                     TMR2            equ	4028	;# 
   215   000FBD                     CCP1CON         equ	4029	;# 
   216   000FBD                     ECCP1CON        equ	4029	;# 
   217   000FBE                     CCPR1           equ	4030	;# 
   218   000FBE                     CCPR1L          equ	4030	;# 
   219   000FBF                     CCPR1H          equ	4031	;# 
   220   000FC0                     ADCON2          equ	4032	;# 
   221   000FC1                     ADCON1          equ	4033	;# 
   222   000FC2                     ADCON0          equ	4034	;# 
   223   000FC3                     ADRESL          equ	4035	;# 
   224   000FC4                     ADRESH          equ	4036	;# 
   225   000FC5                     SSP1CON2        equ	4037	;# 
   226   000FC5                     SSPCON2         equ	4037	;# 
   227   000FC6                     SSP1CON1        equ	4038	;# 
   228   000FC6                     SSPCON          equ	4038	;# 
   229   000FC6                     SSPCON1         equ	4038	;# 
   230   000FC7                     SSP1STAT        equ	4039	;# 
   231   000FC7                     SSPSTAT         equ	4039	;# 
   232   000FC8                     SSP1ADD         equ	4040	;# 
   233   000FC8                     SSPADD          equ	4040	;# 
   234   000FC9                     SSP1BUF         equ	4041	;# 
   235   000FC9                     SSPBUF          equ	4041	;# 
   236   000FCA                     SSP1MSK         equ	4042	;# 
   237   000FCA                     SSPMSK          equ	4042	;# 
   238   000FCB                     SSP1CON3        equ	4043	;# 
   239   000FCB                     SSPCON3         equ	4043	;# 
   240   000FCC                     T1GCON          equ	4044	;# 
   241   000FCD                     T1CON           equ	4045	;# 
   242   000FCE                     TMR1            equ	4046	;# 
   243   000FCE                     TMR1L           equ	4046	;# 
   244   000FCF                     TMR1H           equ	4047	;# 
   245   000FD0                     RCON            equ	4048	;# 
   246   000FD1                     WDTCON          equ	4049	;# 
   247   000FD2                     OSCCON2         equ	4050	;# 
   248   000FD3                     OSCCON          equ	4051	;# 
   249   000FD5                     T0CON           equ	4053	;# 
   250   000FD6                     TMR0            equ	4054	;# 
   251   000FD6                     TMR0L           equ	4054	;# 
   252   000FD7                     TMR0H           equ	4055	;# 
   253   000FD8                     STATUS          equ	4056	;# 
   254   000FD9                     FSR2            equ	4057	;# 
   255   000FD9                     FSR2L           equ	4057	;# 
   256   000FDA                     FSR2H           equ	4058	;# 
   257   000FDB                     PLUSW2          equ	4059	;# 
   258   000FDC                     PREINC2         equ	4060	;# 
   259   000FDD                     POSTDEC2        equ	4061	;# 
   260   000FDE                     POSTINC2        equ	4062	;# 
   261   000FDF                     INDF2           equ	4063	;# 
   262   000FE0                     BSR             equ	4064	;# 
   263   000FE1                     FSR1            equ	4065	;# 
   264   000FE1                     FSR1L           equ	4065	;# 
   265   000FE2                     FSR1H           equ	4066	;# 
   266   000FE3                     PLUSW1          equ	4067	;# 
   267   000FE4                     PREINC1         equ	4068	;# 
   268   000FE5                     POSTDEC1        equ	4069	;# 
   269   000FE6                     POSTINC1        equ	4070	;# 
   270   000FE7                     INDF1           equ	4071	;# 
   271   000FE8                     WREG            equ	4072	;# 
   272   000FE9                     FSR0            equ	4073	;# 
   273   000FE9                     FSR0L           equ	4073	;# 
   274   000FEA                     FSR0H           equ	4074	;# 
   275   000FEB                     PLUSW0          equ	4075	;# 
   276   000FEC                     PREINC0         equ	4076	;# 
   277   000FED                     POSTDEC0        equ	4077	;# 
   278   000FEE                     POSTINC0        equ	4078	;# 
   279   000FEF                     INDF0           equ	4079	;# 
   280   000FF0                     INTCON3         equ	4080	;# 
   281   000FF1                     INTCON2         equ	4081	;# 
   282   000FF2                     INTCON          equ	4082	;# 
   283   000FF3                     PROD            equ	4083	;# 
   284   000FF3                     PRODL           equ	4083	;# 
   285   000FF4                     PRODH           equ	4084	;# 
   286   000FF5                     TABLAT          equ	4085	;# 
   287   000FF6                     TBLPTR          equ	4086	;# 
   288   000FF6                     TBLPTRL         equ	4086	;# 
   289   000FF7                     TBLPTRH         equ	4087	;# 
   290   000FF8                     TBLPTRU         equ	4088	;# 
   291   000FF9                     PCLAT           equ	4089	;# 
   292   000FF9                     PC              equ	4089	;# 
   293   000FF9                     PCL             equ	4089	;# 
   294   000FFA                     PCLATH          equ	4090	;# 
   295   000FFB                     PCLATU          equ	4091	;# 
   296   000FFC                     STKPTR          equ	4092	;# 
   297   000FFD                     TOS             equ	4093	;# 
   298   000FFD                     TOSL            equ	4093	;# 
   299   000FFE                     TOSH            equ	4094	;# 
   300   000FFF                     TOSU            equ	4095	;# 
   301   000F57                     SRCON1          equ	3927	;# 
   302   000F58                     SRCON0          equ	3928	;# 
   303   000F59                     CCPTMRS         equ	3929	;# 
   304   000F5A                     VREGCON         equ	3930	;# 
   305   000F5B                     ANSELA          equ	3931	;# 
   306   000F5C                     ANSELB          equ	3932	;# 
   307   000F5D                     ANSELC          equ	3933	;# 
   308   000F5E                     ANSELD          equ	3934	;# 
   309   000F5F                     ANSELE          equ	3935	;# 
   310   000F60                     UCON            equ	3936	;# 
   311   000F61                     USTAT           equ	3937	;# 
   312   000F62                     UCFG            equ	3938	;# 
   313   000F63                     UADDR           equ	3939	;# 
   314   000F64                     UIE             equ	3940	;# 
   315   000F65                     UIR             equ	3941	;# 
   316   000F66                     UEIE            equ	3942	;# 
   317   000F67                     UEIR            equ	3943	;# 
   318   000F68                     UFRM            equ	3944	;# 
   319   000F68                     UFRML           equ	3944	;# 
   320   000F69                     UFRMH           equ	3945	;# 
   321   000F6A                     UEP0            equ	3946	;# 
   322   000F6B                     UEP1            equ	3947	;# 
   323   000F6C                     UEP2            equ	3948	;# 
   324   000F6D                     UEP3            equ	3949	;# 
   325   000F6E                     UEP4            equ	3950	;# 
   326   000F6F                     UEP5            equ	3951	;# 
   327   000F70                     UEP6            equ	3952	;# 
   328   000F71                     UEP7            equ	3953	;# 
   329   000F72                     UEP8            equ	3954	;# 
   330   000F73                     UEP9            equ	3955	;# 
   331   000F74                     UEP10           equ	3956	;# 
   332   000F75                     UEP11           equ	3957	;# 
   333   000F76                     UEP12           equ	3958	;# 
   334   000F77                     UEP13           equ	3959	;# 
   335   000F78                     UEP14           equ	3960	;# 
   336   000F79                     UEP15           equ	3961	;# 
   337   000F7A                     SLRCON          equ	3962	;# 
   338   000F7B                     VREFCON2        equ	3963	;# 
   339   000F7C                     VREFCON1        equ	3964	;# 
   340   000F7D                     VREFCON0        equ	3965	;# 
   341   000F7E                     PMD0            equ	3966	;# 
   342   000F7F                     PMD1            equ	3967	;# 
   343   000F80                     PORTA           equ	3968	;# 
   344   000F81                     PORTB           equ	3969	;# 
   345   000F82                     PORTC           equ	3970	;# 
   346   000F83                     PORTD           equ	3971	;# 
   347   000F84                     PORTE           equ	3972	;# 
   348   000F85                     WPUB            equ	3973	;# 
   349   000F86                     IOCB            equ	3974	;# 
   350   000F87                     IOCC            equ	3975	;# 
   351   000F88                     CTMUICON        equ	3976	;# 
   352   000F89                     LATA            equ	3977	;# 
   353   000F8A                     LATB            equ	3978	;# 
   354   000F8B                     LATC            equ	3979	;# 
   355   000F8C                     LATD            equ	3980	;# 
   356   000F8D                     LATE            equ	3981	;# 
   357   000F8E                     CTMUCONL        equ	3982	;# 
   358   000F8E                     CTMUCON1        equ	3982	;# 
   359   000F8F                     CTMUCONH        equ	3983	;# 
   360   000F8F                     CTMUCON0        equ	3983	;# 
   361   000F90                     CCPR2           equ	3984	;# 
   362   000F90                     CCPR2L          equ	3984	;# 
   363   000F91                     CCPR2H          equ	3985	;# 
   364   000F92                     TRISA           equ	3986	;# 
   365   000F92                     DDRA            equ	3986	;# 
   366   000F93                     TRISB           equ	3987	;# 
   367   000F93                     DDRB            equ	3987	;# 
   368   000F94                     TRISC           equ	3988	;# 
   369   000F94                     DDRC            equ	3988	;# 
   370   000F95                     TRISD           equ	3989	;# 
   371   000F95                     DDRD            equ	3989	;# 
   372   000F96                     TRISE           equ	3990	;# 
   373   000F96                     DDRE            equ	3990	;# 
   374   000F97                     CCP2CON         equ	3991	;# 
   375   000F97                     ECCP2CON        equ	3991	;# 
   376   000F98                     CM1CON0         equ	3992	;# 
   377   000F99                     CM2CON0         equ	3993	;# 
   378   000F9A                     CM2CON1         equ	3994	;# 
   379   000F9B                     OSCTUNE         equ	3995	;# 
   380   000F9C                     HLVDCON         equ	3996	;# 
   381   000F9D                     PIE1            equ	3997	;# 
   382   000F9E                     PIR1            equ	3998	;# 
   383   000F9F                     IPR1            equ	3999	;# 
   384   000FA0                     PIE2            equ	4000	;# 
   385   000FA1                     PIR2            equ	4001	;# 
   386   000FA2                     IPR2            equ	4002	;# 
   387   000FA3                     PIE3            equ	4003	;# 
   388   000FA4                     PIR3            equ	4004	;# 
   389   000FA5                     IPR3            equ	4005	;# 
   390   000FA6                     EECON1          equ	4006	;# 
   391   000FA7                     EECON2          equ	4007	;# 
   392   000FA8                     EEDATA          equ	4008	;# 
   393   000FA9                     EEADR           equ	4009	;# 
   394   000FAB                     RCSTA1          equ	4011	;# 
   395   000FAB                     RCSTA           equ	4011	;# 
   396   000FAC                     TXSTA1          equ	4012	;# 
   397   000FAC                     TXSTA           equ	4012	;# 
   398   000FAD                     TXREG1          equ	4013	;# 
   399   000FAD                     TXREG           equ	4013	;# 
   400   000FAE                     RCREG1          equ	4014	;# 
   401   000FAE                     RCREG           equ	4014	;# 
   402   000FAF                     SPBRG1          equ	4015	;# 
   403   000FAF                     SPBRG           equ	4015	;# 
   404   000FB0                     SPBRGH1         equ	4016	;# 
   405   000FB0                     SPBRGH          equ	4016	;# 
   406   000FB1                     T3CON           equ	4017	;# 
   407   000FB2                     TMR3            equ	4018	;# 
   408   000FB2                     TMR3L           equ	4018	;# 
   409   000FB3                     TMR3H           equ	4019	;# 
   410   000FB4                     T3GCON          equ	4020	;# 
   411   000FB5                     ACTCON          equ	4021	;# 
   412   000FB5                     STCON           equ	4021	;# 
   413   000FB6                     ECCP1AS         equ	4022	;# 
   414   000FB7                     PWM1CON         equ	4023	;# 
   415   000FB7                     ECCP1DEL        equ	4023	;# 
   416   000FB8                     BAUDCON1        equ	4024	;# 
   417   000FB8                     BAUDCON         equ	4024	;# 
   418   000FB8                     BAUDCTL         equ	4024	;# 
   419   000FB9                     PSTR1CON        equ	4025	;# 
   420   000FBA                     T2CON           equ	4026	;# 
   421   000FBB                     PR2             equ	4027	;# 
   422   000FBC                     TMR2            equ	4028	;# 
   423   000FBD                     CCP1CON         equ	4029	;# 
   424   000FBD                     ECCP1CON        equ	4029	;# 
   425   000FBE                     CCPR1           equ	4030	;# 
   426   000FBE                     CCPR1L          equ	4030	;# 
   427   000FBF                     CCPR1H          equ	4031	;# 
   428   000FC0                     ADCON2          equ	4032	;# 
   429   000FC1                     ADCON1          equ	4033	;# 
   430   000FC2                     ADCON0          equ	4034	;# 
   431   000FC3                     ADRESL          equ	4035	;# 
   432   000FC4                     ADRESH          equ	4036	;# 
   433   000FC5                     SSP1CON2        equ	4037	;# 
   434   000FC5                     SSPCON2         equ	4037	;# 
   435   000FC6                     SSP1CON1        equ	4038	;# 
   436   000FC6                     SSPCON          equ	4038	;# 
   437   000FC6                     SSPCON1         equ	4038	;# 
   438   000FC7                     SSP1STAT        equ	4039	;# 
   439   000FC7                     SSPSTAT         equ	4039	;# 
   440   000FC8                     SSP1ADD         equ	4040	;# 
   441   000FC8                     SSPADD          equ	4040	;# 
   442   000FC9                     SSP1BUF         equ	4041	;# 
   443   000FC9                     SSPBUF          equ	4041	;# 
   444   000FCA                     SSP1MSK         equ	4042	;# 
   445   000FCA                     SSPMSK          equ	4042	;# 
   446   000FCB                     SSP1CON3        equ	4043	;# 
   447   000FCB                     SSPCON3         equ	4043	;# 
   448   000FCC                     T1GCON          equ	4044	;# 
   449   000FCD                     T1CON           equ	4045	;# 
   450   000FCE                     TMR1            equ	4046	;# 
   451   000FCE                     TMR1L           equ	4046	;# 
   452   000FCF                     TMR1H           equ	4047	;# 
   453   000FD0                     RCON            equ	4048	;# 
   454   000FD1                     WDTCON          equ	4049	;# 
   455   000FD2                     OSCCON2         equ	4050	;# 
   456   000FD3                     OSCCON          equ	4051	;# 
   457   000FD5                     T0CON           equ	4053	;# 
   458   000FD6                     TMR0            equ	4054	;# 
   459   000FD6                     TMR0L           equ	4054	;# 
   460   000FD7                     TMR0H           equ	4055	;# 
   461   000FD8                     STATUS          equ	4056	;# 
   462   000FD9                     FSR2            equ	4057	;# 
   463   000FD9                     FSR2L           equ	4057	;# 
   464   000FDA                     FSR2H           equ	4058	;# 
   465   000FDB                     PLUSW2          equ	4059	;# 
   466   000FDC                     PREINC2         equ	4060	;# 
   467   000FDD                     POSTDEC2        equ	4061	;# 
   468   000FDE                     POSTINC2        equ	4062	;# 
   469   000FDF                     INDF2           equ	4063	;# 
   470   000FE0                     BSR             equ	4064	;# 
   471   000FE1                     FSR1            equ	4065	;# 
   472   000FE1                     FSR1L           equ	4065	;# 
   473   000FE2                     FSR1H           equ	4066	;# 
   474   000FE3                     PLUSW1          equ	4067	;# 
   475   000FE4                     PREINC1         equ	4068	;# 
   476   000FE5                     POSTDEC1        equ	4069	;# 
   477   000FE6                     POSTINC1        equ	4070	;# 
   478   000FE7                     INDF1           equ	4071	;# 
   479   000FE8                     WREG            equ	4072	;# 
   480   000FE9                     FSR0            equ	4073	;# 
   481   000FE9                     FSR0L           equ	4073	;# 
   482   000FEA                     FSR0H           equ	4074	;# 
   483   000FEB                     PLUSW0          equ	4075	;# 
   484   000FEC                     PREINC0         equ	4076	;# 
   485   000FED                     POSTDEC0        equ	4077	;# 
   486   000FEE                     POSTINC0        equ	4078	;# 
   487   000FEF                     INDF0           equ	4079	;# 
   488   000FF0                     INTCON3         equ	4080	;# 
   489   000FF1                     INTCON2         equ	4081	;# 
   490   000FF2                     INTCON          equ	4082	;# 
   491   000FF3                     PROD            equ	4083	;# 
   492   000FF3                     PRODL           equ	4083	;# 
   493   000FF4                     PRODH           equ	4084	;# 
   494   000FF5                     TABLAT          equ	4085	;# 
   495   000FF6                     TBLPTR          equ	4086	;# 
   496   000FF6                     TBLPTRL         equ	4086	;# 
   497   000FF7                     TBLPTRH         equ	4087	;# 
   498   000FF8                     TBLPTRU         equ	4088	;# 
   499   000FF9                     PCLAT           equ	4089	;# 
   500   000FF9                     PC              equ	4089	;# 
   501   000FF9                     PCL             equ	4089	;# 
   502   000FFA                     PCLATH          equ	4090	;# 
   503   000FFB                     PCLATU          equ	4091	;# 
   504   000FFC                     STKPTR          equ	4092	;# 
   505   000FFD                     TOS             equ	4093	;# 
   506   000FFD                     TOSL            equ	4093	;# 
   507   000FFE                     TOSH            equ	4094	;# 
   508   000FFF                     TOSU            equ	4095	;# 
   509                           
   510                           	psect	mediumconst
   511   0077FE                     __pmediumconst:
   512                           	callstack 0
   513   0077FE  00                 	db	0
   514   0077FF                     _tcb_n:
   515                           	callstack 0
   516   0077FF  FF                 	db	255
   517   007800  FF                 	db	255
   518   007801  FF                 	db	255
   519   007802  FF                 	db	255
   520   007803  FF                 	db	255
   521   007804  FF                 	db	255
   522   007805  FF                 	db	255
   523   007806  FF                 	db	255
   524   007807  FF                 	db	255
   525   007808  BF                 	db	191
   526   007809  03                 	db	3
   527   00780A  07                 	db	7
   528   00780B  03                 	db	3
   529   00780C  03                 	db	3
   530   00780D  07                 	db	7
   531   00780E  03                 	db	3
   532   00780F  07                 	db	7
   533   007810  03                 	db	3
   534   007811  03                 	db	3
   535   007812  07                 	db	7
   536   007813  03                 	db	3
   537   007814  03                 	db	3
   538   007815  07                 	db	7
   539   007816  03                 	db	3
   540   007817  07                 	db	7
   541   007818  03                 	db	3
   542   007819  03                 	db	3
   543   00781A  07                 	db	7
   544   00781B  03                 	db	3
   545   00781C  03                 	db	3
   546   00781D  07                 	db	7
   547   00781E  03                 	db	3
   548   00781F  07                 	db	7
   549   007820  03                 	db	3
   550   007821  03                 	db	3
   551   007822  07                 	db	7
   552   007823  03                 	db	3
   553   007824  03                 	db	3
   554   007825  07                 	db	7
   555   007826  03                 	db	3
   556   007827  07                 	db	7
   557   007828  03                 	db	3
   558   007829  03                 	db	3
   559   00782A  07                 	db	7
   560   00782B  03                 	db	3
   561   00782C  87                 	db	135
   562   00782D  C3                 	db	195
   563   00782E  E7                 	db	231
   564   00782F  F3                 	db	243
   565   007830  F7                 	db	247
   566   007831  FF                 	db	255
   567   007832  7F                 	db	127
   568   007833  3F                 	db	63
   569   007834  3F                 	db	63
   570   007835  1F                 	db	31
   571   007836  1F                 	db	31
   572   007837  0F                 	db	15
   573   007838  0F                 	db	15
   574   007839  0F                 	db	15
   575   00783A  07                 	db	7
   576   00783B  07                 	db	7
   577   00783C  07                 	db	7
   578   00783D  07                 	db	7
   579   00783E  07                 	db	7
   580   00783F  07                 	db	7
   581   007840  07                 	db	7
   582   007841  07                 	db	7
   583   007842  07                 	db	7
   584   007843  07                 	db	7
   585   007844  57                 	db	87
   586   007845  FF                 	db	255
   587   007846  FF                 	db	255
   588   007847  FF                 	db	255
   589   007848  07                 	db	7
   590   007849  03                 	db	3
   591   00784A  E7                 	db	231
   592   00784B  E3                 	db	227
   593   00784C  E7                 	db	231
   594   00784D  E3                 	db	227
   595   00784E  E7                 	db	231
   596   00784F  E3                 	db	227
   597   007850  E7                 	db	231
   598   007851  E3                 	db	227
   599   007852  E7                 	db	231
   600   007853  E3                 	db	227
   601   007854  E7                 	db	231
   602   007855  F3                 	db	243
   603   007856  E7                 	db	231
   604   007857  47                 	db	71
   605   007858  07                 	db	7
   606   007859  D7                 	db	215
   607   00785A  FF                 	db	255
   608   00785B  FF                 	db	255
   609   00785C  FF                 	db	255
   610   00785D  0F                 	db	15
   611   00785E  03                 	db	3
   612   00785F  07                 	db	7
   613   007860  03                 	db	3
   614   007861  07                 	db	7
   615   007862  07                 	db	7
   616   007863  07                 	db	7
   617   007864  07                 	db	7
   618   007865  07                 	db	7
   619   007866  07                 	db	7
   620   007867  07                 	db	7
   621   007868  0F                 	db	15
   622   007869  0F                 	db	15
   623   00786A  1F                 	db	31
   624   00786B  1F                 	db	31
   625   00786C  3F                 	db	63
   626   00786D  7F                 	db	127
   627   00786E  7F                 	db	127
   628   00786F  FF                 	db	255
   629   007870  FF                 	db	255
   630   007871  FF                 	db	255
   631   007872  FF                 	db	255
   632   007873  FF                 	db	255
   633   007874  FF                 	db	255
   634   007875  FF                 	db	255
   635   007876  FF                 	db	255
   636   007877  FF                 	db	255
   637   007878  FF                 	db	255
   638   007879  FF                 	db	255
   639   00787A  FF                 	db	255
   640   00787B  FF                 	db	255
   641   00787C  FF                 	db	255
   642   00787D  FF                 	db	255
   643   00787E  FF                 	db	255
   644   00787F  FF                 	db	255
   645   007880  FF                 	db	255
   646   007881  FF                 	db	255
   647   007882  FF                 	db	255
   648   007883  FF                 	db	255
   649   007884  FF                 	db	255
   650   007885  FF                 	db	255
   651   007886  FF                 	db	255
   652   007887  FF                 	db	255
   653   007888  F7                 	db	247
   654   007889  00                 	db	0
   655   00788A  80                 	db	128
   656   00788B  00                 	db	0
   657   00788C  80                 	db	128
   658   00788D  80                 	db	128
   659   00788E  00                 	db	0
   660   00788F  80                 	db	128
   661   007890  80                 	db	128
   662   007891  00                 	db	0
   663   007892  80                 	db	128
   664   007893  80                 	db	128
   665   007894  00                 	db	0
   666   007895  80                 	db	128
   667   007896  00                 	db	0
   668   007897  80                 	db	128
   669   007898  00                 	db	0
   670   007899  00                 	db	0
   671   00789A  00                 	db	0
   672   00789B  00                 	db	0
   673   00789C  00                 	db	0
   674   00789D  00                 	db	0
   675   00789E  00                 	db	0
   676   00789F  00                 	db	0
   677   0078A0  00                 	db	0
   678   0078A1  00                 	db	0
   679   0078A2  00                 	db	0
   680   0078A3  00                 	db	0
   681   0078A4  00                 	db	0
   682   0078A5  00                 	db	0
   683   0078A6  80                 	db	128
   684   0078A7  E0                 	db	224
   685   0078A8  F8                 	db	248
   686   0078A9  FC                 	db	252
   687   0078AA  7E                 	db	126
   688   0078AB  3F                 	db	63
   689   0078AC  1F                 	db	31
   690   0078AD  07                 	db	7
   691   0078AE  03                 	db	3
   692   0078AF  01                 	db	1
   693   0078B0  00                 	db	0
   694   0078B1  00                 	db	0
   695   0078B2  00                 	db	0
   696   0078B3  00                 	db	0
   697   0078B4  00                 	db	0
   698   0078B5  00                 	db	0
   699   0078B6  00                 	db	0
   700   0078B7  00                 	db	0
   701   0078B8  00                 	db	0
   702   0078B9  00                 	db	0
   703   0078BA  80                 	db	128
   704   0078BB  80                 	db	128
   705   0078BC  80                 	db	128
   706   0078BD  C0                 	db	192
   707   0078BE  C0                 	db	192
   708   0078BF  C0                 	db	192
   709   0078C0  C0                 	db	192
   710   0078C1  C0                 	db	192
   711   0078C2  C0                 	db	192
   712   0078C3  C0                 	db	192
   713   0078C4  FB                 	db	251
   714   0078C5  FF                 	db	255
   715   0078C6  FF                 	db	255
   716   0078C7  FF                 	db	255
   717   0078C8  00                 	db	0
   718   0078C9  00                 	db	0
   719   0078CA  FF                 	db	255
   720   0078CB  FF                 	db	255
   721   0078CC  FF                 	db	255
   722   0078CD  FF                 	db	255
   723   0078CE  FF                 	db	255
   724   0078CF  FF                 	db	255
   725   0078D0  FF                 	db	255
   726   0078D1  FF                 	db	255
   727   0078D2  FF                 	db	255
   728   0078D3  FF                 	db	255
   729   0078D4  FF                 	db	255
   730   0078D5  FF                 	db	255
   731   0078D6  FF                 	db	255
   732   0078D7  01                 	db	1
   733   0078D8  50                 	db	80
   734   0078D9  FF                 	db	255
   735   0078DA  FF                 	db	255
   736   0078DB  FF                 	db	255
   737   0078DC  E5                 	db	229
   738   0078DD  E0                 	db	224
   739   0078DE  E0                 	db	224
   740   0078DF  E0                 	db	224
   741   0078E0  E0                 	db	224
   742   0078E1  C0                 	db	192
   743   0078E2  E0                 	db	224
   744   0078E3  C0                 	db	192
   745   0078E4  C0                 	db	192
   746   0078E5  80                 	db	128
   747   0078E6  80                 	db	128
   748   0078E7  00                 	db	0
   749   0078E8  00                 	db	0
   750   0078E9  00                 	db	0
   751   0078EA  00                 	db	0
   752   0078EB  00                 	db	0
   753   0078EC  00                 	db	0
   754   0078ED  00                 	db	0
   755   0078EE  00                 	db	0
   756   0078EF  01                 	db	1
   757   0078F0  03                 	db	3
   758   0078F1  0F                 	db	15
   759   0078F2  FF                 	db	255
   760   0078F3  FF                 	db	255
   761   0078F4  FF                 	db	255
   762   0078F5  FF                 	db	255
   763   0078F6  FF                 	db	255
   764   0078F7  FF                 	db	255
   765   0078F8  FF                 	db	255
   766   0078F9  FF                 	db	255
   767   0078FA  FF                 	db	255
   768   0078FB  FF                 	db	255
   769   0078FC  FF                 	db	255
   770   0078FD  FF                 	db	255
   771   0078FE  FF                 	db	255
   772   0078FF  FF                 	db	255
   773   007900  FF                 	db	255
   774   007901  FF                 	db	255
   775   007902  FF                 	db	255
   776   007903  FF                 	db	255
   777   007904  FF                 	db	255
   778   007905  FF                 	db	255
   779   007906  FF                 	db	255
   780   007907  FF                 	db	255
   781   007908  FF                 	db	255
   782   007909  FF                 	db	255
   783   00790A  FF                 	db	255
   784   00790B  FF                 	db	255
   785   00790C  FF                 	db	255
   786   00790D  FF                 	db	255
   787   00790E  FF                 	db	255
   788   00790F  FF                 	db	255
   789   007910  FF                 	db	255
   790   007911  FF                 	db	255
   791   007912  FF                 	db	255
   792   007913  FF                 	db	255
   793   007914  FF                 	db	255
   794   007915  FF                 	db	255
   795   007916  FF                 	db	255
   796   007917  FF                 	db	255
   797   007918  10                 	db	16
   798   007919  00                 	db	0
   799   00791A  00                 	db	0
   800   00791B  00                 	db	0
   801   00791C  00                 	db	0
   802   00791D  00                 	db	0
   803   00791E  00                 	db	0
   804   00791F  00                 	db	0
   805   007920  00                 	db	0
   806   007921  00                 	db	0
   807   007922  00                 	db	0
   808   007923  C0                 	db	192
   809   007924  F8                 	db	248
   810   007925  FE                 	db	254
   811   007926  FF                 	db	255
   812   007927  3F                 	db	63
   813   007928  07                 	db	7
   814   007929  01                 	db	1
   815   00792A  00                 	db	0
   816   00792B  00                 	db	0
   817   00792C  00                 	db	0
   818   00792D  00                 	db	0
   819   00792E  00                 	db	0
   820   00792F  00                 	db	0
   821   007930  00                 	db	0
   822   007931  00                 	db	0
   823   007932  80                 	db	128
   824   007933  C0                 	db	192
   825   007934  F0                 	db	240
   826   007935  F8                 	db	248
   827   007936  FC                 	db	252
   828   007937  FE                 	db	254
   829   007938  FF                 	db	255
   830   007939  FF                 	db	255
   831   00793A  FF                 	db	255
   832   00793B  FF                 	db	255
   833   00793C  FF                 	db	255
   834   00793D  FF                 	db	255
   835   00793E  FF                 	db	255
   836   00793F  FF                 	db	255
   837   007940  FF                 	db	255
   838   007941  FF                 	db	255
   839   007942  FF                 	db	255
   840   007943  FF                 	db	255
   841   007944  FF                 	db	255
   842   007945  FF                 	db	255
   843   007946  FF                 	db	255
   844   007947  FF                 	db	255
   845   007948  00                 	db	0
   846   007949  02                 	db	2
   847   00794A  FF                 	db	255
   848   00794B  FF                 	db	255
   849   00794C  FF                 	db	255
   850   00794D  FF                 	db	255
   851   00794E  FF                 	db	255
   852   00794F  FF                 	db	255
   853   007950  FF                 	db	255
   854   007951  FF                 	db	255
   855   007952  FF                 	db	255
   856   007953  FF                 	db	255
   857   007954  FF                 	db	255
   858   007955  FF                 	db	255
   859   007956  25                 	db	37
   860   007957  00                 	db	0
   861   007958  FF                 	db	255
   862   007959  FF                 	db	255
   863   00795A  FF                 	db	255
   864   00795B  FF                 	db	255
   865   00795C  FF                 	db	255
   866   00795D  FF                 	db	255
   867   00795E  FF                 	db	255
   868   00795F  FF                 	db	255
   869   007960  FF                 	db	255
   870   007961  FF                 	db	255
   871   007962  FF                 	db	255
   872   007963  FF                 	db	255
   873   007964  FF                 	db	255
   874   007965  FF                 	db	255
   875   007966  FF                 	db	255
   876   007967  1E                 	db	30
   877   007968  00                 	db	0
   878   007969  00                 	db	0
   879   00796A  00                 	db	0
   880   00796B  00                 	db	0
   881   00796C  00                 	db	0
   882   00796D  00                 	db	0
   883   00796E  00                 	db	0
   884   00796F  00                 	db	0
   885   007970  00                 	db	0
   886   007971  00                 	db	0
   887   007972  F5                 	db	245
   888   007973  FF                 	db	255
   889   007974  FF                 	db	255
   890   007975  FF                 	db	255
   891   007976  FF                 	db	255
   892   007977  FF                 	db	255
   893   007978  FF                 	db	255
   894   007979  FF                 	db	255
   895   00797A  FF                 	db	255
   896   00797B  FF                 	db	255
   897   00797C  FF                 	db	255
   898   00797D  FF                 	db	255
   899   00797E  FF                 	db	255
   900   00797F  FF                 	db	255
   901   007980  FF                 	db	255
   902   007981  FF                 	db	255
   903   007982  FF                 	db	255
   904   007983  FF                 	db	255
   905   007984  FF                 	db	255
   906   007985  FF                 	db	255
   907   007986  FF                 	db	255
   908   007987  FF                 	db	255
   909   007988  FF                 	db	255
   910   007989  FF                 	db	255
   911   00798A  FF                 	db	255
   912   00798B  FF                 	db	255
   913   00798C  FF                 	db	255
   914   00798D  FF                 	db	255
   915   00798E  FF                 	db	255
   916   00798F  FF                 	db	255
   917   007990  FF                 	db	255
   918   007991  FF                 	db	255
   919   007992  FF                 	db	255
   920   007993  FF                 	db	255
   921   007994  FF                 	db	255
   922   007995  FF                 	db	255
   923   007996  FF                 	db	255
   924   007997  FF                 	db	255
   925   007998  49                 	db	73
   926   007999  00                 	db	0
   927   00799A  00                 	db	0
   928   00799B  00                 	db	0
   929   00799C  00                 	db	0
   930   00799D  00                 	db	0
   931   00799E  00                 	db	0
   932   00799F  00                 	db	0
   933   0079A0  00                 	db	0
   934   0079A1  00                 	db	0
   935   0079A2  E8                 	db	232
   936   0079A3  FF                 	db	255
   937   0079A4  FF                 	db	255
   938   0079A5  FF                 	db	255
   939   0079A6  05                 	db	5
   940   0079A7  00                 	db	0
   941   0079A8  00                 	db	0
   942   0079A9  00                 	db	0
   943   0079AA  00                 	db	0
   944   0079AB  00                 	db	0
   945   0079AC  00                 	db	0
   946   0079AD  00                 	db	0
   947   0079AE  00                 	db	0
   948   0079AF  00                 	db	0
   949   0079B0  00                 	db	0
   950   0079B1  FC                 	db	252
   951   0079B2  FF                 	db	255
   952   0079B3  FF                 	db	255
   953   0079B4  FF                 	db	255
   954   0079B5  FF                 	db	255
   955   0079B6  FF                 	db	255
   956   0079B7  FF                 	db	255
   957   0079B8  FF                 	db	255
   958   0079B9  FF                 	db	255
   959   0079BA  FF                 	db	255
   960   0079BB  FF                 	db	255
   961   0079BC  FF                 	db	255
   962   0079BD  FF                 	db	255
   963   0079BE  FF                 	db	255
   964   0079BF  FF                 	db	255
   965   0079C0  FF                 	db	255
   966   0079C1  FF                 	db	255
   967   0079C2  FF                 	db	255
   968   0079C3  FF                 	db	255
   969   0079C4  FF                 	db	255
   970   0079C5  FF                 	db	255
   971   0079C6  FF                 	db	255
   972   0079C7  FF                 	db	255
   973   0079C8  40                 	db	64
   974   0079C9  00                 	db	0
   975   0079CA  FF                 	db	255
   976   0079CB  FF                 	db	255
   977   0079CC  FF                 	db	255
   978   0079CD  FF                 	db	255
   979   0079CE  FF                 	db	255
   980   0079CF  FF                 	db	255
   981   0079D0  FF                 	db	255
   982   0079D1  FF                 	db	255
   983   0079D2  FF                 	db	255
   984   0079D3  FF                 	db	255
   985   0079D4  FF                 	db	255
   986   0079D5  FF                 	db	255
   987   0079D6  00                 	db	0
   988   0079D7  55                 	db	85
   989   0079D8  FF                 	db	255
   990   0079D9  FF                 	db	255
   991   0079DA  FF                 	db	255
   992   0079DB  03                 	db	3
   993   0079DC  03                 	db	3
   994   0079DD  03                 	db	3
   995   0079DE  03                 	db	3
   996   0079DF  03                 	db	3
   997   0079E0  03                 	db	3
   998   0079E1  03                 	db	3
   999   0079E2  03                 	db	3
  1000   0079E3  01                 	db	1
  1001   0079E4  01                 	db	1
  1002   0079E5  01                 	db	1
  1003   0079E6  00                 	db	0
  1004   0079E7  00                 	db	0
  1005   0079E8  00                 	db	0
  1006   0079E9  00                 	db	0
  1007   0079EA  00                 	db	0
  1008   0079EB  00                 	db	0
  1009   0079EC  40                 	db	64
  1010   0079ED  E0                 	db	224
  1011   0079EE  F0                 	db	240
  1012   0079EF  F8                 	db	248
  1013   0079F0  FC                 	db	252
  1014   0079F1  FF                 	db	255
  1015   0079F2  FF                 	db	255
  1016   0079F3  FF                 	db	255
  1017   0079F4  FF                 	db	255
  1018   0079F5  FF                 	db	255
  1019   0079F6  FF                 	db	255
  1020   0079F7  FF                 	db	255
  1021   0079F8  FF                 	db	255
  1022   0079F9  FF                 	db	255
  1023   0079FA  FF                 	db	255
  1024   0079FB  FF                 	db	255
  1025   0079FC  FF                 	db	255
  1026   0079FD  FF                 	db	255
  1027   0079FE  FF                 	db	255
  1028   0079FF  FF                 	db	255
  1029   007A00  FF                 	db	255
  1030   007A01  FF                 	db	255
  1031   007A02  FF                 	db	255
  1032   007A03  FF                 	db	255
  1033   007A04  FF                 	db	255
  1034   007A05  FF                 	db	255
  1035   007A06  FF                 	db	255
  1036   007A07  FF                 	db	255
  1037   007A08  FF                 	db	255
  1038   007A09  FF                 	db	255
  1039   007A0A  FF                 	db	255
  1040   007A0B  FF                 	db	255
  1041   007A0C  FF                 	db	255
  1042   007A0D  FF                 	db	255
  1043   007A0E  FF                 	db	255
  1044   007A0F  FF                 	db	255
  1045   007A10  FF                 	db	255
  1046   007A11  FF                 	db	255
  1047   007A12  FF                 	db	255
  1048   007A13  FF                 	db	255
  1049   007A14  FF                 	db	255
  1050   007A15  FF                 	db	255
  1051   007A16  FF                 	db	255
  1052   007A17  FF                 	db	255
  1053   007A18  92                 	db	146
  1054   007A19  00                 	db	0
  1055   007A1A  00                 	db	0
  1056   007A1B  00                 	db	0
  1057   007A1C  00                 	db	0
  1058   007A1D  00                 	db	0
  1059   007A1E  00                 	db	0
  1060   007A1F  00                 	db	0
  1061   007A20  00                 	db	0
  1062   007A21  00                 	db	0
  1063   007A22  1B                 	db	27
  1064   007A23  FF                 	db	255
  1065   007A24  FF                 	db	255
  1066   007A25  FF                 	db	255
  1067   007A26  00                 	db	0
  1068   007A27  00                 	db	0
  1069   007A28  00                 	db	0
  1070   007A29  00                 	db	0
  1071   007A2A  00                 	db	0
  1072   007A2B  00                 	db	0
  1073   007A2C  00                 	db	0
  1074   007A2D  00                 	db	0
  1075   007A2E  00                 	db	0
  1076   007A2F  00                 	db	0
  1077   007A30  00                 	db	0
  1078   007A31  FF                 	db	255
  1079   007A32  FF                 	db	255
  1080   007A33  FF                 	db	255
  1081   007A34  FF                 	db	255
  1082   007A35  FF                 	db	255
  1083   007A36  FF                 	db	255
  1084   007A37  FF                 	db	255
  1085   007A38  FF                 	db	255
  1086   007A39  FF                 	db	255
  1087   007A3A  FF                 	db	255
  1088   007A3B  FF                 	db	255
  1089   007A3C  FF                 	db	255
  1090   007A3D  FF                 	db	255
  1091   007A3E  FF                 	db	255
  1092   007A3F  FF                 	db	255
  1093   007A40  FF                 	db	255
  1094   007A41  FF                 	db	255
  1095   007A42  FF                 	db	255
  1096   007A43  FF                 	db	255
  1097   007A44  FF                 	db	255
  1098   007A45  FF                 	db	255
  1099   007A46  FF                 	db	255
  1100   007A47  FF                 	db	255
  1101   007A48  FF                 	db	255
  1102   007A49  E0                 	db	224
  1103   007A4A  01                 	db	1
  1104   007A4B  1F                 	db	31
  1105   007A4C  FF                 	db	255
  1106   007A4D  FF                 	db	255
  1107   007A4E  FF                 	db	255
  1108   007A4F  FF                 	db	255
  1109   007A50  FF                 	db	255
  1110   007A51  FF                 	db	255
  1111   007A52  FF                 	db	255
  1112   007A53  FF                 	db	255
  1113   007A54  FF                 	db	255
  1114   007A55  D6                 	db	214
  1115   007A56  00                 	db	0
  1116   007A57  BB                 	db	187
  1117   007A58  FF                 	db	255
  1118   007A59  FF                 	db	255
  1119   007A5A  FF                 	db	255
  1120   007A5B  F0                 	db	240
  1121   007A5C  F0                 	db	240
  1122   007A5D  F0                 	db	240
  1123   007A5E  F0                 	db	240
  1124   007A5F  F0                 	db	240
  1125   007A60  F0                 	db	240
  1126   007A61  F0                 	db	240
  1127   007A62  F0                 	db	240
  1128   007A63  F0                 	db	240
  1129   007A64  E0                 	db	224
  1130   007A65  E0                 	db	224
  1131   007A66  C0                 	db	192
  1132   007A67  80                 	db	128
  1133   007A68  00                 	db	0
  1134   007A69  00                 	db	0
  1135   007A6A  00                 	db	0
  1136   007A6B  00                 	db	0
  1137   007A6C  00                 	db	0
  1138   007A6D  00                 	db	0
  1139   007A6E  01                 	db	1
  1140   007A6F  01                 	db	1
  1141   007A70  07                 	db	7
  1142   007A71  0F                 	db	15
  1143   007A72  1F                 	db	31
  1144   007A73  FF                 	db	255
  1145   007A74  FF                 	db	255
  1146   007A75  FF                 	db	255
  1147   007A76  FF                 	db	255
  1148   007A77  FF                 	db	255
  1149   007A78  FF                 	db	255
  1150   007A79  FF                 	db	255
  1151   007A7A  FF                 	db	255
  1152   007A7B  FF                 	db	255
  1153   007A7C  FF                 	db	255
  1154   007A7D  FF                 	db	255
  1155   007A7E  FF                 	db	255
  1156   007A7F  FF                 	db	255
  1157   007A80  FF                 	db	255
  1158   007A81  FF                 	db	255
  1159   007A82  FF                 	db	255
  1160   007A83  FF                 	db	255
  1161   007A84  FF                 	db	255
  1162   007A85  FF                 	db	255
  1163   007A86  FF                 	db	255
  1164   007A87  FF                 	db	255
  1165   007A88  FF                 	db	255
  1166   007A89  FF                 	db	255
  1167   007A8A  FF                 	db	255
  1168   007A8B  FF                 	db	255
  1169   007A8C  FF                 	db	255
  1170   007A8D  FF                 	db	255
  1171   007A8E  FF                 	db	255
  1172   007A8F  FF                 	db	255
  1173   007A90  FF                 	db	255
  1174   007A91  FF                 	db	255
  1175   007A92  FF                 	db	255
  1176   007A93  FF                 	db	255
  1177   007A94  FF                 	db	255
  1178   007A95  FF                 	db	255
  1179   007A96  FF                 	db	255
  1180   007A97  FF                 	db	255
  1181   007A98  24                 	db	36
  1182   007A99  00                 	db	0
  1183   007A9A  00                 	db	0
  1184   007A9B  00                 	db	0
  1185   007A9C  00                 	db	0
  1186   007A9D  00                 	db	0
  1187   007A9E  00                 	db	0
  1188   007A9F  00                 	db	0
  1189   007AA0  00                 	db	0
  1190   007AA1  00                 	db	0
  1191   007AA2  00                 	db	0
  1192   007AA3  0F                 	db	15
  1193   007AA4  7F                 	db	127
  1194   007AA5  FF                 	db	255
  1195   007AA6  FF                 	db	255
  1196   007AA7  F0                 	db	240
  1197   007AA8  80                 	db	128
  1198   007AA9  00                 	db	0
  1199   007AAA  00                 	db	0
  1200   007AAB  00                 	db	0
  1201   007AAC  00                 	db	0
  1202   007AAD  00                 	db	0
  1203   007AAE  00                 	db	0
  1204   007AAF  00                 	db	0
  1205   007AB0  00                 	db	0
  1206   007AB1  00                 	db	0
  1207   007AB2  07                 	db	7
  1208   007AB3  0F                 	db	15
  1209   007AB4  3F                 	db	63
  1210   007AB5  7F                 	db	127
  1211   007AB6  FF                 	db	255
  1212   007AB7  FF                 	db	255
  1213   007AB8  FF                 	db	255
  1214   007AB9  FF                 	db	255
  1215   007ABA  FF                 	db	255
  1216   007ABB  FF                 	db	255
  1217   007ABC  FF                 	db	255
  1218   007ABD  FF                 	db	255
  1219   007ABE  FF                 	db	255
  1220   007ABF  FF                 	db	255
  1221   007AC0  FF                 	db	255
  1222   007AC1  FF                 	db	255
  1223   007AC2  FF                 	db	255
  1224   007AC3  FF                 	db	255
  1225   007AC4  FF                 	db	255
  1226   007AC5  FF                 	db	255
  1227   007AC6  FF                 	db	255
  1228   007AC7  FF                 	db	255
  1229   007AC8  FF                 	db	255
  1230   007AC9  FF                 	db	255
  1231   007ACA  FF                 	db	255
  1232   007ACB  F8                 	db	248
  1233   007ACC  E1                 	db	225
  1234   007ACD  87                 	db	135
  1235   007ACE  1F                 	db	31
  1236   007ACF  7F                 	db	127
  1237   007AD0  FF                 	db	255
  1238   007AD1  FF                 	db	255
  1239   007AD2  FF                 	db	255
  1240   007AD3  FF                 	db	255
  1241   007AD4  FF                 	db	255
  1242   007AD5  FE                 	db	254
  1243   007AD6  00                 	db	0
  1244   007AD7  15                 	db	21
  1245   007AD8  FF                 	db	255
  1246   007AD9  FF                 	db	255
  1247   007ADA  FF                 	db	255
  1248   007ADB  FF                 	db	255
  1249   007ADC  FF                 	db	255
  1250   007ADD  FF                 	db	255
  1251   007ADE  FF                 	db	255
  1252   007ADF  FF                 	db	255
  1253   007AE0  FF                 	db	255
  1254   007AE1  FF                 	db	255
  1255   007AE2  FF                 	db	255
  1256   007AE3  FF                 	db	255
  1257   007AE4  FF                 	db	255
  1258   007AE5  FF                 	db	255
  1259   007AE6  FF                 	db	255
  1260   007AE7  FF                 	db	255
  1261   007AE8  3E                 	db	62
  1262   007AE9  00                 	db	0
  1263   007AEA  00                 	db	0
  1264   007AEB  00                 	db	0
  1265   007AEC  00                 	db	0
  1266   007AED  00                 	db	0
  1267   007AEE  00                 	db	0
  1268   007AEF  00                 	db	0
  1269   007AF0  00                 	db	0
  1270   007AF1  00                 	db	0
  1271   007AF2  00                 	db	0
  1272   007AF3  00                 	db	0
  1273   007AF4  FF                 	db	255
  1274   007AF5  FF                 	db	255
  1275   007AF6  FF                 	db	255
  1276   007AF7  FF                 	db	255
  1277   007AF8  FF                 	db	255
  1278   007AF9  FF                 	db	255
  1279   007AFA  FF                 	db	255
  1280   007AFB  FF                 	db	255
  1281   007AFC  FF                 	db	255
  1282   007AFD  FF                 	db	255
  1283   007AFE  FF                 	db	255
  1284   007AFF  FF                 	db	255
  1285   007B00  FF                 	db	255
  1286   007B01  FF                 	db	255
  1287   007B02  FF                 	db	255
  1288   007B03  FF                 	db	255
  1289   007B04  FF                 	db	255
  1290   007B05  FF                 	db	255
  1291   007B06  FF                 	db	255
  1292   007B07  FF                 	db	255
  1293   007B08  FF                 	db	255
  1294   007B09  FF                 	db	255
  1295   007B0A  FF                 	db	255
  1296   007B0B  FF                 	db	255
  1297   007B0C  FF                 	db	255
  1298   007B0D  FF                 	db	255
  1299   007B0E  FF                 	db	255
  1300   007B0F  FF                 	db	255
  1301   007B10  FF                 	db	255
  1302   007B11  FF                 	db	255
  1303   007B12  FF                 	db	255
  1304   007B13  FF                 	db	255
  1305   007B14  FF                 	db	255
  1306   007B15  FF                 	db	255
  1307   007B16  FF                 	db	255
  1308   007B17  FF                 	db	255
  1309   007B18  29                 	db	41
  1310   007B19  00                 	db	0
  1311   007B1A  00                 	db	0
  1312   007B1B  00                 	db	0
  1313   007B1C  00                 	db	0
  1314   007B1D  00                 	db	0
  1315   007B1E  00                 	db	0
  1316   007B1F  00                 	db	0
  1317   007B20  00                 	db	0
  1318   007B21  00                 	db	0
  1319   007B22  00                 	db	0
  1320   007B23  00                 	db	0
  1321   007B24  00                 	db	0
  1322   007B25  03                 	db	3
  1323   007B26  5F                 	db	95
  1324   007B27  FF                 	db	255
  1325   007B28  FF                 	db	255
  1326   007B29  FC                 	db	252
  1327   007B2A  F8                 	db	248
  1328   007B2B  E0                 	db	224
  1329   007B2C  C0                 	db	192
  1330   007B2D  80                 	db	128
  1331   007B2E  00                 	db	0
  1332   007B2F  00                 	db	0
  1333   007B30  00                 	db	0
  1334   007B31  00                 	db	0
  1335   007B32  00                 	db	0
  1336   007B33  00                 	db	0
  1337   007B34  00                 	db	0
  1338   007B35  00                 	db	0
  1339   007B36  00                 	db	0
  1340   007B37  01                 	db	1
  1341   007B38  01                 	db	1
  1342   007B39  03                 	db	3
  1343   007B3A  07                 	db	7
  1344   007B3B  07                 	db	7
  1345   007B3C  07                 	db	7
  1346   007B3D  07                 	db	7
  1347   007B3E  0F                 	db	15
  1348   007B3F  07                 	db	7
  1349   007B40  0F                 	db	15
  1350   007B41  07                 	db	7
  1351   007B42  0F                 	db	15
  1352   007B43  07                 	db	7
  1353   007B44  0F                 	db	15
  1354   007B45  07                 	db	7
  1355   007B46  07                 	db	7
  1356   007B47  07                 	db	7
  1357   007B48  03                 	db	3
  1358   007B49  03                 	db	3
  1359   007B4A  03                 	db	3
  1360   007B4B  07                 	db	7
  1361   007B4C  1F                 	db	31
  1362   007B4D  7F                 	db	127
  1363   007B4E  FE                 	db	254
  1364   007B4F  F8                 	db	248
  1365   007B50  F1                 	db	241
  1366   007B51  C7                 	db	199
  1367   007B52  8F                 	db	143
  1368   007B53  1F                 	db	31
  1369   007B54  7F                 	db	127
  1370   007B55  FF                 	db	255
  1371   007B56  54                 	db	84
  1372   007B57  00                 	db	0
  1373   007B58  3F                 	db	63
  1374   007B59  FF                 	db	255
  1375   007B5A  FF                 	db	255
  1376   007B5B  FF                 	db	255
  1377   007B5C  87                 	db	135
  1378   007B5D  07                 	db	7
  1379   007B5E  07                 	db	7
  1380   007B5F  07                 	db	7
  1381   007B60  07                 	db	7
  1382   007B61  07                 	db	7
  1383   007B62  03                 	db	3
  1384   007B63  07                 	db	7
  1385   007B64  03                 	db	3
  1386   007B65  03                 	db	3
  1387   007B66  01                 	db	1
  1388   007B67  00                 	db	0
  1389   007B68  00                 	db	0
  1390   007B69  00                 	db	0
  1391   007B6A  00                 	db	0
  1392   007B6B  00                 	db	0
  1393   007B6C  00                 	db	0
  1394   007B6D  00                 	db	0
  1395   007B6E  00                 	db	0
  1396   007B6F  00                 	db	0
  1397   007B70  00                 	db	0
  1398   007B71  C0                 	db	192
  1399   007B72  E0                 	db	224
  1400   007B73  FA                 	db	250
  1401   007B74  FF                 	db	255
  1402   007B75  FF                 	db	255
  1403   007B76  FF                 	db	255
  1404   007B77  FF                 	db	255
  1405   007B78  FF                 	db	255
  1406   007B79  FF                 	db	255
  1407   007B7A  FF                 	db	255
  1408   007B7B  FF                 	db	255
  1409   007B7C  FF                 	db	255
  1410   007B7D  FF                 	db	255
  1411   007B7E  FF                 	db	255
  1412   007B7F  FF                 	db	255
  1413   007B80  FF                 	db	255
  1414   007B81  FF                 	db	255
  1415   007B82  FF                 	db	255
  1416   007B83  FF                 	db	255
  1417   007B84  FF                 	db	255
  1418   007B85  FF                 	db	255
  1419   007B86  FF                 	db	255
  1420   007B87  FF                 	db	255
  1421   007B88  FF                 	db	255
  1422   007B89  FF                 	db	255
  1423   007B8A  FF                 	db	255
  1424   007B8B  FF                 	db	255
  1425   007B8C  FF                 	db	255
  1426   007B8D  FF                 	db	255
  1427   007B8E  FF                 	db	255
  1428   007B8F  FF                 	db	255
  1429   007B90  FF                 	db	255
  1430   007B91  FF                 	db	255
  1431   007B92  FF                 	db	255
  1432   007B93  FF                 	db	255
  1433   007B94  FF                 	db	255
  1434   007B95  FF                 	db	255
  1435   007B96  FF                 	db	255
  1436   007B97  FF                 	db	255
  1437   007B98  E9                 	db	233
  1438   007B99  E0                 	db	224
  1439   007B9A  C0                 	db	192
  1440   007B9B  E0                 	db	224
  1441   007B9C  E0                 	db	224
  1442   007B9D  C0                 	db	192
  1443   007B9E  E0                 	db	224
  1444   007B9F  E0                 	db	224
  1445   007BA0  C0                 	db	192
  1446   007BA1  E0                 	db	224
  1447   007BA2  E0                 	db	224
  1448   007BA3  C0                 	db	192
  1449   007BA4  E0                 	db	224
  1450   007BA5  E0                 	db	224
  1451   007BA6  E5                 	db	229
  1452   007BA7  FF                 	db	255
  1453   007BA8  FF                 	db	255
  1454   007BA9  FF                 	db	255
  1455   007BAA  FF                 	db	255
  1456   007BAB  FF                 	db	255
  1457   007BAC  FF                 	db	255
  1458   007BAD  FF                 	db	255
  1459   007BAE  FF                 	db	255
  1460   007BAF  FE                 	db	254
  1461   007BB0  FC                 	db	252
  1462   007BB1  FC                 	db	252
  1463   007BB2  F8                 	db	248
  1464   007BB3  F0                 	db	240
  1465   007BB4  F0                 	db	240
  1466   007BB5  F0                 	db	240
  1467   007BB6  E0                 	db	224
  1468   007BB7  E0                 	db	224
  1469   007BB8  C0                 	db	192
  1470   007BB9  C0                 	db	192
  1471   007BBA  C0                 	db	192
  1472   007BBB  C0                 	db	192
  1473   007BBC  80                 	db	128
  1474   007BBD  C0                 	db	192
  1475   007BBE  80                 	db	128
  1476   007BBF  C0                 	db	192
  1477   007BC0  80                 	db	128
  1478   007BC1  C0                 	db	192
  1479   007BC2  80                 	db	128
  1480   007BC3  C0                 	db	192
  1481   007BC4  80                 	db	128
  1482   007BC5  C0                 	db	192
  1483   007BC6  C0                 	db	192
  1484   007BC7  C0                 	db	192
  1485   007BC8  C0                 	db	192
  1486   007BC9  C0                 	db	192
  1487   007BCA  E0                 	db	224
  1488   007BCB  E0                 	db	224
  1489   007BCC  E0                 	db	224
  1490   007BCD  F0                 	db	240
  1491   007BCE  F0                 	db	240
  1492   007BCF  FB                 	db	251
  1493   007BD0  FF                 	db	255
  1494   007BD1  FF                 	db	255
  1495   007BD2  FF                 	db	255
  1496   007BD3  FE                 	db	254
  1497   007BD4  FE                 	db	254
  1498   007BD5  F8                 	db	248
  1499   007BD6  F8                 	db	248
  1500   007BD7  F0                 	db	240
  1501   007BD8  E0                 	db	224
  1502   007BD9  EF                 	db	239
  1503   007BDA  FF                 	db	255
  1504   007BDB  FF                 	db	255
  1505   007BDC  FE                 	db	254
  1506   007BDD  E0                 	db	224
  1507   007BDE  C0                 	db	192
  1508   007BDF  C0                 	db	192
  1509   007BE0  C0                 	db	192
  1510   007BE1  C0                 	db	192
  1511   007BE2  C0                 	db	192
  1512   007BE3  E0                 	db	224
  1513   007BE4  C0                 	db	192
  1514   007BE5  E0                 	db	224
  1515   007BE6  E0                 	db	224
  1516   007BE7  E0                 	db	224
  1517   007BE8  E0                 	db	224
  1518   007BE9  F0                 	db	240
  1519   007BEA  F0                 	db	240
  1520   007BEB  F0                 	db	240
  1521   007BEC  F8                 	db	248
  1522   007BED  FC                 	db	252
  1523   007BEE  FC                 	db	252
  1524   007BEF  FE                 	db	254
  1525   007BF0  FF                 	db	255
  1526   007BF1  FF                 	db	255
  1527   007BF2  FF                 	db	255
  1528   007BF3  FF                 	db	255
  1529   007BF4  FF                 	db	255
  1530   007BF5  FF                 	db	255
  1531   007BF6  FF                 	db	255
  1532   007BF7  FF                 	db	255
  1533   007BF8  FF                 	db	255
  1534   007BF9  FF                 	db	255
  1535   007BFA  FF                 	db	255
  1536   007BFB  FF                 	db	255
  1537   007BFC  FF                 	db	255
  1538   007BFD  FF                 	db	255
  1539   007BFE  FF                 	db	255
  1540   007BFF                     __end_of_tcb_n:
  1541                           	callstack 0
  1542   007BFF                     _tcb_b:
  1543                           	callstack 0
  1544   007BFF  FF                 	db	255
  1545   007C00  FF                 	db	255
  1546   007C01  FF                 	db	255
  1547   007C02  FF                 	db	255
  1548   007C03  FF                 	db	255
  1549   007C04  FF                 	db	255
  1550   007C05  FF                 	db	255
  1551   007C06  FF                 	db	255
  1552   007C07  FF                 	db	255
  1553   007C08  BF                 	db	191
  1554   007C09  03                 	db	3
  1555   007C0A  07                 	db	7
  1556   007C0B  03                 	db	3
  1557   007C0C  03                 	db	3
  1558   007C0D  07                 	db	7
  1559   007C0E  03                 	db	3
  1560   007C0F  07                 	db	7
  1561   007C10  03                 	db	3
  1562   007C11  03                 	db	3
  1563   007C12  07                 	db	7
  1564   007C13  03                 	db	3
  1565   007C14  03                 	db	3
  1566   007C15  07                 	db	7
  1567   007C16  03                 	db	3
  1568   007C17  07                 	db	7
  1569   007C18  03                 	db	3
  1570   007C19  03                 	db	3
  1571   007C1A  07                 	db	7
  1572   007C1B  03                 	db	3
  1573   007C1C  03                 	db	3
  1574   007C1D  07                 	db	7
  1575   007C1E  03                 	db	3
  1576   007C1F  07                 	db	7
  1577   007C20  03                 	db	3
  1578   007C21  03                 	db	3
  1579   007C22  07                 	db	7
  1580   007C23  03                 	db	3
  1581   007C24  03                 	db	3
  1582   007C25  07                 	db	7
  1583   007C26  03                 	db	3
  1584   007C27  07                 	db	7
  1585   007C28  03                 	db	3
  1586   007C29  03                 	db	3
  1587   007C2A  07                 	db	7
  1588   007C2B  03                 	db	3
  1589   007C2C  87                 	db	135
  1590   007C2D  C3                 	db	195
  1591   007C2E  E7                 	db	231
  1592   007C2F  F3                 	db	243
  1593   007C30  F7                 	db	247
  1594   007C31  FF                 	db	255
  1595   007C32  7F                 	db	127
  1596   007C33  3F                 	db	63
  1597   007C34  3F                 	db	63
  1598   007C35  1F                 	db	31
  1599   007C36  1F                 	db	31
  1600   007C37  0F                 	db	15
  1601   007C38  0F                 	db	15
  1602   007C39  0F                 	db	15
  1603   007C3A  07                 	db	7
  1604   007C3B  07                 	db	7
  1605   007C3C  07                 	db	7
  1606   007C3D  07                 	db	7
  1607   007C3E  07                 	db	7
  1608   007C3F  07                 	db	7
  1609   007C40  07                 	db	7
  1610   007C41  07                 	db	7
  1611   007C42  07                 	db	7
  1612   007C43  07                 	db	7
  1613   007C44  57                 	db	87
  1614   007C45  FF                 	db	255
  1615   007C46  FF                 	db	255
  1616   007C47  FF                 	db	255
  1617   007C48  07                 	db	7
  1618   007C49  03                 	db	3
  1619   007C4A  E7                 	db	231
  1620   007C4B  E3                 	db	227
  1621   007C4C  E7                 	db	231
  1622   007C4D  E3                 	db	227
  1623   007C4E  E7                 	db	231
  1624   007C4F  E3                 	db	227
  1625   007C50  E7                 	db	231
  1626   007C51  E3                 	db	227
  1627   007C52  E7                 	db	231
  1628   007C53  E3                 	db	227
  1629   007C54  E7                 	db	231
  1630   007C55  F3                 	db	243
  1631   007C56  E7                 	db	231
  1632   007C57  47                 	db	71
  1633   007C58  07                 	db	7
  1634   007C59  D7                 	db	215
  1635   007C5A  FF                 	db	255
  1636   007C5B  FF                 	db	255
  1637   007C5C  FF                 	db	255
  1638   007C5D  0F                 	db	15
  1639   007C5E  03                 	db	3
  1640   007C5F  07                 	db	7
  1641   007C60  03                 	db	3
  1642   007C61  07                 	db	7
  1643   007C62  07                 	db	7
  1644   007C63  07                 	db	7
  1645   007C64  07                 	db	7
  1646   007C65  07                 	db	7
  1647   007C66  07                 	db	7
  1648   007C67  07                 	db	7
  1649   007C68  0F                 	db	15
  1650   007C69  0F                 	db	15
  1651   007C6A  1F                 	db	31
  1652   007C6B  1F                 	db	31
  1653   007C6C  3F                 	db	63
  1654   007C6D  7F                 	db	127
  1655   007C6E  7F                 	db	127
  1656   007C6F  FF                 	db	255
  1657   007C70  FF                 	db	255
  1658   007C71  FF                 	db	255
  1659   007C72  FF                 	db	255
  1660   007C73  FF                 	db	255
  1661   007C74  FF                 	db	255
  1662   007C75  FF                 	db	255
  1663   007C76  FF                 	db	255
  1664   007C77  FF                 	db	255
  1665   007C78  FF                 	db	255
  1666   007C79  FF                 	db	255
  1667   007C7A  FF                 	db	255
  1668   007C7B  FF                 	db	255
  1669   007C7C  FF                 	db	255
  1670   007C7D  FF                 	db	255
  1671   007C7E  FF                 	db	255
  1672   007C7F  FF                 	db	255
  1673   007C80  FF                 	db	255
  1674   007C81  FF                 	db	255
  1675   007C82  FF                 	db	255
  1676   007C83  FF                 	db	255
  1677   007C84  FF                 	db	255
  1678   007C85  FF                 	db	255
  1679   007C86  FF                 	db	255
  1680   007C87  FF                 	db	255
  1681   007C88  F7                 	db	247
  1682   007C89  00                 	db	0
  1683   007C8A  80                 	db	128
  1684   007C8B  00                 	db	0
  1685   007C8C  80                 	db	128
  1686   007C8D  80                 	db	128
  1687   007C8E  00                 	db	0
  1688   007C8F  80                 	db	128
  1689   007C90  80                 	db	128
  1690   007C91  00                 	db	0
  1691   007C92  80                 	db	128
  1692   007C93  80                 	db	128
  1693   007C94  00                 	db	0
  1694   007C95  80                 	db	128
  1695   007C96  00                 	db	0
  1696   007C97  80                 	db	128
  1697   007C98  00                 	db	0
  1698   007C99  00                 	db	0
  1699   007C9A  00                 	db	0
  1700   007C9B  00                 	db	0
  1701   007C9C  00                 	db	0
  1702   007C9D  00                 	db	0
  1703   007C9E  00                 	db	0
  1704   007C9F  00                 	db	0
  1705   007CA0  00                 	db	0
  1706   007CA1  00                 	db	0
  1707   007CA2  00                 	db	0
  1708   007CA3  00                 	db	0
  1709   007CA4  00                 	db	0
  1710   007CA5  00                 	db	0
  1711   007CA6  80                 	db	128
  1712   007CA7  E0                 	db	224
  1713   007CA8  F8                 	db	248
  1714   007CA9  FC                 	db	252
  1715   007CAA  7E                 	db	126
  1716   007CAB  3F                 	db	63
  1717   007CAC  1F                 	db	31
  1718   007CAD  07                 	db	7
  1719   007CAE  03                 	db	3
  1720   007CAF  01                 	db	1
  1721   007CB0  00                 	db	0
  1722   007CB1  00                 	db	0
  1723   007CB2  00                 	db	0
  1724   007CB3  00                 	db	0
  1725   007CB4  00                 	db	0
  1726   007CB5  00                 	db	0
  1727   007CB6  00                 	db	0
  1728   007CB7  00                 	db	0
  1729   007CB8  00                 	db	0
  1730   007CB9  00                 	db	0
  1731   007CBA  80                 	db	128
  1732   007CBB  80                 	db	128
  1733   007CBC  80                 	db	128
  1734   007CBD  C0                 	db	192
  1735   007CBE  C0                 	db	192
  1736   007CBF  C0                 	db	192
  1737   007CC0  C0                 	db	192
  1738   007CC1  C0                 	db	192
  1739   007CC2  C0                 	db	192
  1740   007CC3  C0                 	db	192
  1741   007CC4  FB                 	db	251
  1742   007CC5  FF                 	db	255
  1743   007CC6  FF                 	db	255
  1744   007CC7  FF                 	db	255
  1745   007CC8  00                 	db	0
  1746   007CC9  00                 	db	0
  1747   007CCA  FF                 	db	255
  1748   007CCB  FF                 	db	255
  1749   007CCC  FF                 	db	255
  1750   007CCD  FF                 	db	255
  1751   007CCE  FF                 	db	255
  1752   007CCF  FF                 	db	255
  1753   007CD0  FF                 	db	255
  1754   007CD1  FF                 	db	255
  1755   007CD2  FF                 	db	255
  1756   007CD3  FF                 	db	255
  1757   007CD4  FF                 	db	255
  1758   007CD5  FF                 	db	255
  1759   007CD6  FF                 	db	255
  1760   007CD7  01                 	db	1
  1761   007CD8  50                 	db	80
  1762   007CD9  FF                 	db	255
  1763   007CDA  FF                 	db	255
  1764   007CDB  FF                 	db	255
  1765   007CDC  E5                 	db	229
  1766   007CDD  E0                 	db	224
  1767   007CDE  E0                 	db	224
  1768   007CDF  E0                 	db	224
  1769   007CE0  E0                 	db	224
  1770   007CE1  C0                 	db	192
  1771   007CE2  E0                 	db	224
  1772   007CE3  C0                 	db	192
  1773   007CE4  C0                 	db	192
  1774   007CE5  80                 	db	128
  1775   007CE6  80                 	db	128
  1776   007CE7  00                 	db	0
  1777   007CE8  00                 	db	0
  1778   007CE9  00                 	db	0
  1779   007CEA  00                 	db	0
  1780   007CEB  00                 	db	0
  1781   007CEC  00                 	db	0
  1782   007CED  00                 	db	0
  1783   007CEE  00                 	db	0
  1784   007CEF  01                 	db	1
  1785   007CF0  03                 	db	3
  1786   007CF1  0F                 	db	15
  1787   007CF2  FF                 	db	255
  1788   007CF3  FF                 	db	255
  1789   007CF4  FF                 	db	255
  1790   007CF5  FF                 	db	255
  1791   007CF6  FF                 	db	255
  1792   007CF7  FF                 	db	255
  1793   007CF8  FF                 	db	255
  1794   007CF9  FF                 	db	255
  1795   007CFA  FF                 	db	255
  1796   007CFB  FF                 	db	255
  1797   007CFC  FF                 	db	255
  1798   007CFD  FF                 	db	255
  1799   007CFE  FF                 	db	255
  1800   007CFF  FF                 	db	255
  1801   007D00  FF                 	db	255
  1802   007D01  FF                 	db	255
  1803   007D02  FF                 	db	255
  1804   007D03  FF                 	db	255
  1805   007D04  FF                 	db	255
  1806   007D05  FF                 	db	255
  1807   007D06  FF                 	db	255
  1808   007D07  FF                 	db	255
  1809   007D08  FF                 	db	255
  1810   007D09  FF                 	db	255
  1811   007D0A  FF                 	db	255
  1812   007D0B  FF                 	db	255
  1813   007D0C  FF                 	db	255
  1814   007D0D  FF                 	db	255
  1815   007D0E  FF                 	db	255
  1816   007D0F  FF                 	db	255
  1817   007D10  FF                 	db	255
  1818   007D11  FF                 	db	255
  1819   007D12  FF                 	db	255
  1820   007D13  FF                 	db	255
  1821   007D14  FF                 	db	255
  1822   007D15  FF                 	db	255
  1823   007D16  FF                 	db	255
  1824   007D17  FF                 	db	255
  1825   007D18  10                 	db	16
  1826   007D19  00                 	db	0
  1827   007D1A  00                 	db	0
  1828   007D1B  00                 	db	0
  1829   007D1C  00                 	db	0
  1830   007D1D  00                 	db	0
  1831   007D1E  00                 	db	0
  1832   007D1F  00                 	db	0
  1833   007D20  00                 	db	0
  1834   007D21  00                 	db	0
  1835   007D22  00                 	db	0
  1836   007D23  C0                 	db	192
  1837   007D24  F8                 	db	248
  1838   007D25  FE                 	db	254
  1839   007D26  FF                 	db	255
  1840   007D27  3F                 	db	63
  1841   007D28  07                 	db	7
  1842   007D29  01                 	db	1
  1843   007D2A  00                 	db	0
  1844   007D2B  00                 	db	0
  1845   007D2C  00                 	db	0
  1846   007D2D  00                 	db	0
  1847   007D2E  00                 	db	0
  1848   007D2F  00                 	db	0
  1849   007D30  00                 	db	0
  1850   007D31  00                 	db	0
  1851   007D32  80                 	db	128
  1852   007D33  C0                 	db	192
  1853   007D34  F0                 	db	240
  1854   007D35  F8                 	db	248
  1855   007D36  FC                 	db	252
  1856   007D37  FE                 	db	254
  1857   007D38  FF                 	db	255
  1858   007D39  FF                 	db	255
  1859   007D3A  FF                 	db	255
  1860   007D3B  FF                 	db	255
  1861   007D3C  FF                 	db	255
  1862   007D3D  FF                 	db	255
  1863   007D3E  FF                 	db	255
  1864   007D3F  FF                 	db	255
  1865   007D40  FF                 	db	255
  1866   007D41  FF                 	db	255
  1867   007D42  FF                 	db	255
  1868   007D43  FF                 	db	255
  1869   007D44  FF                 	db	255
  1870   007D45  FF                 	db	255
  1871   007D46  FF                 	db	255
  1872   007D47  FF                 	db	255
  1873   007D48  00                 	db	0
  1874   007D49  02                 	db	2
  1875   007D4A  FF                 	db	255
  1876   007D4B  FF                 	db	255
  1877   007D4C  FF                 	db	255
  1878   007D4D  FF                 	db	255
  1879   007D4E  FF                 	db	255
  1880   007D4F  FF                 	db	255
  1881   007D50  FF                 	db	255
  1882   007D51  FF                 	db	255
  1883   007D52  FF                 	db	255
  1884   007D53  FF                 	db	255
  1885   007D54  FF                 	db	255
  1886   007D55  FF                 	db	255
  1887   007D56  25                 	db	37
  1888   007D57  00                 	db	0
  1889   007D58  FF                 	db	255
  1890   007D59  FF                 	db	255
  1891   007D5A  FF                 	db	255
  1892   007D5B  FF                 	db	255
  1893   007D5C  FF                 	db	255
  1894   007D5D  FF                 	db	255
  1895   007D5E  FF                 	db	255
  1896   007D5F  FF                 	db	255
  1897   007D60  FF                 	db	255
  1898   007D61  FF                 	db	255
  1899   007D62  FF                 	db	255
  1900   007D63  FF                 	db	255
  1901   007D64  FF                 	db	255
  1902   007D65  FF                 	db	255
  1903   007D66  FF                 	db	255
  1904   007D67  1E                 	db	30
  1905   007D68  00                 	db	0
  1906   007D69  00                 	db	0
  1907   007D6A  00                 	db	0
  1908   007D6B  00                 	db	0
  1909   007D6C  00                 	db	0
  1910   007D6D  00                 	db	0
  1911   007D6E  00                 	db	0
  1912   007D6F  00                 	db	0
  1913   007D70  00                 	db	0
  1914   007D71  00                 	db	0
  1915   007D72  F5                 	db	245
  1916   007D73  FF                 	db	255
  1917   007D74  FF                 	db	255
  1918   007D75  FF                 	db	255
  1919   007D76  FF                 	db	255
  1920   007D77  FF                 	db	255
  1921   007D78  FF                 	db	255
  1922   007D79  FF                 	db	255
  1923   007D7A  FF                 	db	255
  1924   007D7B  FF                 	db	255
  1925   007D7C  FF                 	db	255
  1926   007D7D  FF                 	db	255
  1927   007D7E  FF                 	db	255
  1928   007D7F  FF                 	db	255
  1929   007D80  FF                 	db	255
  1930   007D81  FF                 	db	255
  1931   007D82  FF                 	db	255
  1932   007D83  FF                 	db	255
  1933   007D84  FF                 	db	255
  1934   007D85  FF                 	db	255
  1935   007D86  FF                 	db	255
  1936   007D87  FF                 	db	255
  1937   007D88  FF                 	db	255
  1938   007D89  FF                 	db	255
  1939   007D8A  FF                 	db	255
  1940   007D8B  FF                 	db	255
  1941   007D8C  FF                 	db	255
  1942   007D8D  FF                 	db	255
  1943   007D8E  FF                 	db	255
  1944   007D8F  FF                 	db	255
  1945   007D90  FF                 	db	255
  1946   007D91  FF                 	db	255
  1947   007D92  FF                 	db	255
  1948   007D93  FF                 	db	255
  1949   007D94  FF                 	db	255
  1950   007D95  FF                 	db	255
  1951   007D96  FF                 	db	255
  1952   007D97  FF                 	db	255
  1953   007D98  49                 	db	73
  1954   007D99  00                 	db	0
  1955   007D9A  00                 	db	0
  1956   007D9B  00                 	db	0
  1957   007D9C  00                 	db	0
  1958   007D9D  00                 	db	0
  1959   007D9E  00                 	db	0
  1960   007D9F  00                 	db	0
  1961   007DA0  00                 	db	0
  1962   007DA1  00                 	db	0
  1963   007DA2  E8                 	db	232
  1964   007DA3  FF                 	db	255
  1965   007DA4  FF                 	db	255
  1966   007DA5  FF                 	db	255
  1967   007DA6  05                 	db	5
  1968   007DA7  00                 	db	0
  1969   007DA8  00                 	db	0
  1970   007DA9  00                 	db	0
  1971   007DAA  00                 	db	0
  1972   007DAB  00                 	db	0
  1973   007DAC  00                 	db	0
  1974   007DAD  00                 	db	0
  1975   007DAE  00                 	db	0
  1976   007DAF  00                 	db	0
  1977   007DB0  00                 	db	0
  1978   007DB1  FC                 	db	252
  1979   007DB2  FF                 	db	255
  1980   007DB3  FF                 	db	255
  1981   007DB4  FF                 	db	255
  1982   007DB5  FF                 	db	255
  1983   007DB6  FF                 	db	255
  1984   007DB7  FF                 	db	255
  1985   007DB8  FF                 	db	255
  1986   007DB9  FF                 	db	255
  1987   007DBA  FF                 	db	255
  1988   007DBB  FF                 	db	255
  1989   007DBC  FF                 	db	255
  1990   007DBD  FF                 	db	255
  1991   007DBE  FF                 	db	255
  1992   007DBF  FF                 	db	255
  1993   007DC0  FF                 	db	255
  1994   007DC1  FF                 	db	255
  1995   007DC2  FF                 	db	255
  1996   007DC3  FF                 	db	255
  1997   007DC4  FF                 	db	255
  1998   007DC5  FF                 	db	255
  1999   007DC6  FF                 	db	255
  2000   007DC7  FF                 	db	255
  2001   007DC8  40                 	db	64
  2002   007DC9  00                 	db	0
  2003   007DCA  FF                 	db	255
  2004   007DCB  FF                 	db	255
  2005   007DCC  FF                 	db	255
  2006   007DCD  FF                 	db	255
  2007   007DCE  FF                 	db	255
  2008   007DCF  FF                 	db	255
  2009   007DD0  FF                 	db	255
  2010   007DD1  FF                 	db	255
  2011   007DD2  FF                 	db	255
  2012   007DD3  FF                 	db	255
  2013   007DD4  FF                 	db	255
  2014   007DD5  FF                 	db	255
  2015   007DD6  00                 	db	0
  2016   007DD7  55                 	db	85
  2017   007DD8  FF                 	db	255
  2018   007DD9  FF                 	db	255
  2019   007DDA  FF                 	db	255
  2020   007DDB  03                 	db	3
  2021   007DDC  03                 	db	3
  2022   007DDD  03                 	db	3
  2023   007DDE  03                 	db	3
  2024   007DDF  03                 	db	3
  2025   007DE0  03                 	db	3
  2026   007DE1  03                 	db	3
  2027   007DE2  03                 	db	3
  2028   007DE3  01                 	db	1
  2029   007DE4  01                 	db	1
  2030   007DE5  01                 	db	1
  2031   007DE6  00                 	db	0
  2032   007DE7  00                 	db	0
  2033   007DE8  00                 	db	0
  2034   007DE9  00                 	db	0
  2035   007DEA  00                 	db	0
  2036   007DEB  00                 	db	0
  2037   007DEC  40                 	db	64
  2038   007DED  E0                 	db	224
  2039   007DEE  F0                 	db	240
  2040   007DEF  F8                 	db	248
  2041   007DF0  FC                 	db	252
  2042   007DF1  FF                 	db	255
  2043   007DF2  FF                 	db	255
  2044   007DF3  FF                 	db	255
  2045   007DF4  FF                 	db	255
  2046   007DF5  FF                 	db	255
  2047   007DF6  FF                 	db	255
  2048   007DF7  FF                 	db	255
  2049   007DF8  FF                 	db	255
  2050   007DF9  FF                 	db	255
  2051   007DFA  FF                 	db	255
  2052   007DFB  FF                 	db	255
  2053   007DFC  FF                 	db	255
  2054   007DFD  FF                 	db	255
  2055   007DFE  FF                 	db	255
  2056   007DFF  FF                 	db	255
  2057   007E00  FF                 	db	255
  2058   007E01  FF                 	db	255
  2059   007E02  FF                 	db	255
  2060   007E03  FF                 	db	255
  2061   007E04  FF                 	db	255
  2062   007E05  FF                 	db	255
  2063   007E06  FF                 	db	255
  2064   007E07  FF                 	db	255
  2065   007E08  FF                 	db	255
  2066   007E09  FF                 	db	255
  2067   007E0A  FF                 	db	255
  2068   007E0B  FF                 	db	255
  2069   007E0C  FF                 	db	255
  2070   007E0D  FF                 	db	255
  2071   007E0E  FF                 	db	255
  2072   007E0F  FF                 	db	255
  2073   007E10  FF                 	db	255
  2074   007E11  FF                 	db	255
  2075   007E12  FF                 	db	255
  2076   007E13  FF                 	db	255
  2077   007E14  FF                 	db	255
  2078   007E15  FF                 	db	255
  2079   007E16  FF                 	db	255
  2080   007E17  FF                 	db	255
  2081   007E18  92                 	db	146
  2082   007E19  00                 	db	0
  2083   007E1A  00                 	db	0
  2084   007E1B  00                 	db	0
  2085   007E1C  00                 	db	0
  2086   007E1D  00                 	db	0
  2087   007E1E  00                 	db	0
  2088   007E1F  00                 	db	0
  2089   007E20  00                 	db	0
  2090   007E21  00                 	db	0
  2091   007E22  1B                 	db	27
  2092   007E23  FF                 	db	255
  2093   007E24  FF                 	db	255
  2094   007E25  FF                 	db	255
  2095   007E26  00                 	db	0
  2096   007E27  00                 	db	0
  2097   007E28  00                 	db	0
  2098   007E29  00                 	db	0
  2099   007E2A  00                 	db	0
  2100   007E2B  00                 	db	0
  2101   007E2C  00                 	db	0
  2102   007E2D  00                 	db	0
  2103   007E2E  00                 	db	0
  2104   007E2F  00                 	db	0
  2105   007E30  00                 	db	0
  2106   007E31  FF                 	db	255
  2107   007E32  FF                 	db	255
  2108   007E33  FF                 	db	255
  2109   007E34  FF                 	db	255
  2110   007E35  FF                 	db	255
  2111   007E36  FF                 	db	255
  2112   007E37  FF                 	db	255
  2113   007E38  FF                 	db	255
  2114   007E39  FF                 	db	255
  2115   007E3A  FF                 	db	255
  2116   007E3B  FF                 	db	255
  2117   007E3C  FF                 	db	255
  2118   007E3D  FF                 	db	255
  2119   007E3E  FF                 	db	255
  2120   007E3F  FF                 	db	255
  2121   007E40  FF                 	db	255
  2122   007E41  FF                 	db	255
  2123   007E42  FF                 	db	255
  2124   007E43  FF                 	db	255
  2125   007E44  FF                 	db	255
  2126   007E45  FF                 	db	255
  2127   007E46  FF                 	db	255
  2128   007E47  FF                 	db	255
  2129   007E48  FF                 	db	255
  2130   007E49  E0                 	db	224
  2131   007E4A  01                 	db	1
  2132   007E4B  1F                 	db	31
  2133   007E4C  FF                 	db	255
  2134   007E4D  FF                 	db	255
  2135   007E4E  FF                 	db	255
  2136   007E4F  FF                 	db	255
  2137   007E50  FF                 	db	255
  2138   007E51  FF                 	db	255
  2139   007E52  FF                 	db	255
  2140   007E53  FF                 	db	255
  2141   007E54  FF                 	db	255
  2142   007E55  D6                 	db	214
  2143   007E56  00                 	db	0
  2144   007E57  BB                 	db	187
  2145   007E58  FF                 	db	255
  2146   007E59  FF                 	db	255
  2147   007E5A  FF                 	db	255
  2148   007E5B  F0                 	db	240
  2149   007E5C  F0                 	db	240
  2150   007E5D  F0                 	db	240
  2151   007E5E  F0                 	db	240
  2152   007E5F  F0                 	db	240
  2153   007E60  F0                 	db	240
  2154   007E61  F0                 	db	240
  2155   007E62  F0                 	db	240
  2156   007E63  F0                 	db	240
  2157   007E64  E0                 	db	224
  2158   007E65  E0                 	db	224
  2159   007E66  C0                 	db	192
  2160   007E67  80                 	db	128
  2161   007E68  00                 	db	0
  2162   007E69  00                 	db	0
  2163   007E6A  00                 	db	0
  2164   007E6B  00                 	db	0
  2165   007E6C  00                 	db	0
  2166   007E6D  00                 	db	0
  2167   007E6E  01                 	db	1
  2168   007E6F  01                 	db	1
  2169   007E70  07                 	db	7
  2170   007E71  0F                 	db	15
  2171   007E72  1F                 	db	31
  2172   007E73  FF                 	db	255
  2173   007E74  FF                 	db	255
  2174   007E75  FF                 	db	255
  2175   007E76  FF                 	db	255
  2176   007E77  FF                 	db	255
  2177   007E78  FF                 	db	255
  2178   007E79  FF                 	db	255
  2179   007E7A  FF                 	db	255
  2180   007E7B  FF                 	db	255
  2181   007E7C  FF                 	db	255
  2182   007E7D  FF                 	db	255
  2183   007E7E  FF                 	db	255
  2184   007E7F  FF                 	db	255
  2185   007E80  FF                 	db	255
  2186   007E81  FF                 	db	255
  2187   007E82  FF                 	db	255
  2188   007E83  FF                 	db	255
  2189   007E84  FF                 	db	255
  2190   007E85  FF                 	db	255
  2191   007E86  FF                 	db	255
  2192   007E87  FF                 	db	255
  2193   007E88  FF                 	db	255
  2194   007E89  FF                 	db	255
  2195   007E8A  FF                 	db	255
  2196   007E8B  FF                 	db	255
  2197   007E8C  FF                 	db	255
  2198   007E8D  FF                 	db	255
  2199   007E8E  FF                 	db	255
  2200   007E8F  FF                 	db	255
  2201   007E90  FF                 	db	255
  2202   007E91  FF                 	db	255
  2203   007E92  FF                 	db	255
  2204   007E93  FF                 	db	255
  2205   007E94  FF                 	db	255
  2206   007E95  FF                 	db	255
  2207   007E96  FF                 	db	255
  2208   007E97  FF                 	db	255
  2209   007E98  24                 	db	36
  2210   007E99  00                 	db	0
  2211   007E9A  00                 	db	0
  2212   007E9B  00                 	db	0
  2213   007E9C  00                 	db	0
  2214   007E9D  00                 	db	0
  2215   007E9E  00                 	db	0
  2216   007E9F  00                 	db	0
  2217   007EA0  00                 	db	0
  2218   007EA1  00                 	db	0
  2219   007EA2  00                 	db	0
  2220   007EA3  0F                 	db	15
  2221   007EA4  7F                 	db	127
  2222   007EA5  FF                 	db	255
  2223   007EA6  FF                 	db	255
  2224   007EA7  F0                 	db	240
  2225   007EA8  80                 	db	128
  2226   007EA9  00                 	db	0
  2227   007EAA  00                 	db	0
  2228   007EAB  00                 	db	0
  2229   007EAC  00                 	db	0
  2230   007EAD  00                 	db	0
  2231   007EAE  00                 	db	0
  2232   007EAF  00                 	db	0
  2233   007EB0  00                 	db	0
  2234   007EB1  00                 	db	0
  2235   007EB2  07                 	db	7
  2236   007EB3  0F                 	db	15
  2237   007EB4  3F                 	db	63
  2238   007EB5  7F                 	db	127
  2239   007EB6  FF                 	db	255
  2240   007EB7  FF                 	db	255
  2241   007EB8  FF                 	db	255
  2242   007EB9  FF                 	db	255
  2243   007EBA  FF                 	db	255
  2244   007EBB  FF                 	db	255
  2245   007EBC  FF                 	db	255
  2246   007EBD  FF                 	db	255
  2247   007EBE  FF                 	db	255
  2248   007EBF  FF                 	db	255
  2249   007EC0  FF                 	db	255
  2250   007EC1  FF                 	db	255
  2251   007EC2  FF                 	db	255
  2252   007EC3  FF                 	db	255
  2253   007EC4  FF                 	db	255
  2254   007EC5  FF                 	db	255
  2255   007EC6  FF                 	db	255
  2256   007EC7  FF                 	db	255
  2257   007EC8  FF                 	db	255
  2258   007EC9  FF                 	db	255
  2259   007ECA  FF                 	db	255
  2260   007ECB  F8                 	db	248
  2261   007ECC  E1                 	db	225
  2262   007ECD  87                 	db	135
  2263   007ECE  1F                 	db	31
  2264   007ECF  7F                 	db	127
  2265   007ED0  FF                 	db	255
  2266   007ED1  FF                 	db	255
  2267   007ED2  FF                 	db	255
  2268   007ED3  FF                 	db	255
  2269   007ED4  FF                 	db	255
  2270   007ED5  FE                 	db	254
  2271   007ED6  00                 	db	0
  2272   007ED7  15                 	db	21
  2273   007ED8  FF                 	db	255
  2274   007ED9  FF                 	db	255
  2275   007EDA  FF                 	db	255
  2276   007EDB  FF                 	db	255
  2277   007EDC  FF                 	db	255
  2278   007EDD  FF                 	db	255
  2279   007EDE  FF                 	db	255
  2280   007EDF  FF                 	db	255
  2281   007EE0  FF                 	db	255
  2282   007EE1  FF                 	db	255
  2283   007EE2  FF                 	db	255
  2284   007EE3  FF                 	db	255
  2285   007EE4  FF                 	db	255
  2286   007EE5  FF                 	db	255
  2287   007EE6  FF                 	db	255
  2288   007EE7  FF                 	db	255
  2289   007EE8  3E                 	db	62
  2290   007EE9  00                 	db	0
  2291   007EEA  00                 	db	0
  2292   007EEB  00                 	db	0
  2293   007EEC  00                 	db	0
  2294   007EED  00                 	db	0
  2295   007EEE  00                 	db	0
  2296   007EEF  00                 	db	0
  2297   007EF0  00                 	db	0
  2298   007EF1  00                 	db	0
  2299   007EF2  00                 	db	0
  2300   007EF3  00                 	db	0
  2301   007EF4  FF                 	db	255
  2302   007EF5  FF                 	db	255
  2303   007EF6  FF                 	db	255
  2304   007EF7  FF                 	db	255
  2305   007EF8  FF                 	db	255
  2306   007EF9  FF                 	db	255
  2307   007EFA  FF                 	db	255
  2308   007EFB  FF                 	db	255
  2309   007EFC  FF                 	db	255
  2310   007EFD  FF                 	db	255
  2311   007EFE  FF                 	db	255
  2312   007EFF  FF                 	db	255
  2313   007F00  FF                 	db	255
  2314   007F01  FF                 	db	255
  2315   007F02  FF                 	db	255
  2316   007F03  FF                 	db	255
  2317   007F04  FF                 	db	255
  2318   007F05  FF                 	db	255
  2319   007F06  FF                 	db	255
  2320   007F07  FF                 	db	255
  2321   007F08  FF                 	db	255
  2322   007F09  FF                 	db	255
  2323   007F0A  FF                 	db	255
  2324   007F0B  FF                 	db	255
  2325   007F0C  FF                 	db	255
  2326   007F0D  FF                 	db	255
  2327   007F0E  FF                 	db	255
  2328   007F0F  FF                 	db	255
  2329   007F10  FF                 	db	255
  2330   007F11  FF                 	db	255
  2331   007F12  FF                 	db	255
  2332   007F13  FF                 	db	255
  2333   007F14  FF                 	db	255
  2334   007F15  FF                 	db	255
  2335   007F16  FF                 	db	255
  2336   007F17  FF                 	db	255
  2337   007F18  29                 	db	41
  2338   007F19  00                 	db	0
  2339   007F1A  00                 	db	0
  2340   007F1B  00                 	db	0
  2341   007F1C  00                 	db	0
  2342   007F1D  00                 	db	0
  2343   007F1E  00                 	db	0
  2344   007F1F  00                 	db	0
  2345   007F20  00                 	db	0
  2346   007F21  00                 	db	0
  2347   007F22  00                 	db	0
  2348   007F23  00                 	db	0
  2349   007F24  00                 	db	0
  2350   007F25  03                 	db	3
  2351   007F26  5F                 	db	95
  2352   007F27  FF                 	db	255
  2353   007F28  FF                 	db	255
  2354   007F29  FC                 	db	252
  2355   007F2A  F8                 	db	248
  2356   007F2B  E0                 	db	224
  2357   007F2C  C0                 	db	192
  2358   007F2D  80                 	db	128
  2359   007F2E  00                 	db	0
  2360   007F2F  00                 	db	0
  2361   007F30  00                 	db	0
  2362   007F31  00                 	db	0
  2363   007F32  00                 	db	0
  2364   007F33  00                 	db	0
  2365   007F34  00                 	db	0
  2366   007F35  00                 	db	0
  2367   007F36  00                 	db	0
  2368   007F37  01                 	db	1
  2369   007F38  01                 	db	1
  2370   007F39  03                 	db	3
  2371   007F3A  07                 	db	7
  2372   007F3B  07                 	db	7
  2373   007F3C  07                 	db	7
  2374   007F3D  07                 	db	7
  2375   007F3E  0F                 	db	15
  2376   007F3F  07                 	db	7
  2377   007F40  0F                 	db	15
  2378   007F41  07                 	db	7
  2379   007F42  0F                 	db	15
  2380   007F43  07                 	db	7
  2381   007F44  0F                 	db	15
  2382   007F45  07                 	db	7
  2383   007F46  07                 	db	7
  2384   007F47  07                 	db	7
  2385   007F48  03                 	db	3
  2386   007F49  03                 	db	3
  2387   007F4A  03                 	db	3
  2388   007F4B  07                 	db	7
  2389   007F4C  1F                 	db	31
  2390   007F4D  7F                 	db	127
  2391   007F4E  FE                 	db	254
  2392   007F4F  F8                 	db	248
  2393   007F50  F1                 	db	241
  2394   007F51  C7                 	db	199
  2395   007F52  8F                 	db	143
  2396   007F53  1F                 	db	31
  2397   007F54  7F                 	db	127
  2398   007F55  FF                 	db	255
  2399   007F56  54                 	db	84
  2400   007F57  00                 	db	0
  2401   007F58  3F                 	db	63
  2402   007F59  FF                 	db	255
  2403   007F5A  FF                 	db	255
  2404   007F5B  FF                 	db	255
  2405   007F5C  87                 	db	135
  2406   007F5D  07                 	db	7
  2407   007F5E  07                 	db	7
  2408   007F5F  07                 	db	7
  2409   007F60  07                 	db	7
  2410   007F61  07                 	db	7
  2411   007F62  03                 	db	3
  2412   007F63  07                 	db	7
  2413   007F64  03                 	db	3
  2414   007F65  03                 	db	3
  2415   007F66  01                 	db	1
  2416   007F67  00                 	db	0
  2417   007F68  00                 	db	0
  2418   007F69  00                 	db	0
  2419   007F6A  00                 	db	0
  2420   007F6B  00                 	db	0
  2421   007F6C  00                 	db	0
  2422   007F6D  00                 	db	0
  2423   007F6E  00                 	db	0
  2424   007F6F  00                 	db	0
  2425   007F70  00                 	db	0
  2426   007F71  C0                 	db	192
  2427   007F72  E0                 	db	224
  2428   007F73  FA                 	db	250
  2429   007F74  FF                 	db	255
  2430   007F75  FF                 	db	255
  2431   007F76  FF                 	db	255
  2432   007F77  FF                 	db	255
  2433   007F78  FF                 	db	255
  2434   007F79  FF                 	db	255
  2435   007F7A  FF                 	db	255
  2436   007F7B  FF                 	db	255
  2437   007F7C  FF                 	db	255
  2438   007F7D  FF                 	db	255
  2439   007F7E  FF                 	db	255
  2440   007F7F  FF                 	db	255
  2441   007F80  FF                 	db	255
  2442   007F81  FF                 	db	255
  2443   007F82  FF                 	db	255
  2444   007F83  FF                 	db	255
  2445   007F84  FF                 	db	255
  2446   007F85  FF                 	db	255
  2447   007F86  FF                 	db	255
  2448   007F87  FF                 	db	255
  2449   007F88  FF                 	db	255
  2450   007F89  FF                 	db	255
  2451   007F8A  FF                 	db	255
  2452   007F8B  FF                 	db	255
  2453   007F8C  FF                 	db	255
  2454   007F8D  FF                 	db	255
  2455   007F8E  FF                 	db	255
  2456   007F8F  FF                 	db	255
  2457   007F90  FF                 	db	255
  2458   007F91  FF                 	db	255
  2459   007F92  FF                 	db	255
  2460   007F93  FF                 	db	255
  2461   007F94  FF                 	db	255
  2462   007F95  FF                 	db	255
  2463   007F96  FF                 	db	255
  2464   007F97  FF                 	db	255
  2465   007F98  E9                 	db	233
  2466   007F99  E0                 	db	224
  2467   007F9A  C0                 	db	192
  2468   007F9B  E0                 	db	224
  2469   007F9C  E0                 	db	224
  2470   007F9D  C0                 	db	192
  2471   007F9E  E0                 	db	224
  2472   007F9F  E0                 	db	224
  2473   007FA0  C0                 	db	192
  2474   007FA1  E0                 	db	224
  2475   007FA2  E0                 	db	224
  2476   007FA3  C0                 	db	192
  2477   007FA4  E0                 	db	224
  2478   007FA5  E0                 	db	224
  2479   007FA6  E5                 	db	229
  2480   007FA7  FF                 	db	255
  2481   007FA8  FF                 	db	255
  2482   007FA9  FF                 	db	255
  2483   007FAA  FF                 	db	255
  2484   007FAB  FF                 	db	255
  2485   007FAC  FF                 	db	255
  2486   007FAD  FF                 	db	255
  2487   007FAE  FF                 	db	255
  2488   007FAF  FE                 	db	254
  2489   007FB0  FC                 	db	252
  2490   007FB1  FC                 	db	252
  2491   007FB2  F8                 	db	248
  2492   007FB3  F0                 	db	240
  2493   007FB4  F0                 	db	240
  2494   007FB5  F0                 	db	240
  2495   007FB6  E0                 	db	224
  2496   007FB7  E0                 	db	224
  2497   007FB8  C0                 	db	192
  2498   007FB9  C0                 	db	192
  2499   007FBA  C0                 	db	192
  2500   007FBB  C0                 	db	192
  2501   007FBC  80                 	db	128
  2502   007FBD  C0                 	db	192
  2503   007FBE  80                 	db	128
  2504   007FBF  C0                 	db	192
  2505   007FC0  80                 	db	128
  2506   007FC1  C0                 	db	192
  2507   007FC2  80                 	db	128
  2508   007FC3  C0                 	db	192
  2509   007FC4  80                 	db	128
  2510   007FC5  C0                 	db	192
  2511   007FC6  C0                 	db	192
  2512   007FC7  C0                 	db	192
  2513   007FC8  C0                 	db	192
  2514   007FC9  C0                 	db	192
  2515   007FCA  E0                 	db	224
  2516   007FCB  E0                 	db	224
  2517   007FCC  E0                 	db	224
  2518   007FCD  F0                 	db	240
  2519   007FCE  F0                 	db	240
  2520   007FCF  FB                 	db	251
  2521   007FD0  FF                 	db	255
  2522   007FD1  FF                 	db	255
  2523   007FD2  FF                 	db	255
  2524   007FD3  FE                 	db	254
  2525   007FD4  FE                 	db	254
  2526   007FD5  F8                 	db	248
  2527   007FD6  F8                 	db	248
  2528   007FD7  F0                 	db	240
  2529   007FD8  E0                 	db	224
  2530   007FD9  EF                 	db	239
  2531   007FDA  FF                 	db	255
  2532   007FDB  FF                 	db	255
  2533   007FDC  FE                 	db	254
  2534   007FDD  E0                 	db	224
  2535   007FDE  C0                 	db	192
  2536   007FDF  C0                 	db	192
  2537   007FE0  C0                 	db	192
  2538   007FE1  C0                 	db	192
  2539   007FE2  C0                 	db	192
  2540   007FE3  E0                 	db	224
  2541   007FE4  C0                 	db	192
  2542   007FE5  E0                 	db	224
  2543   007FE6  E0                 	db	224
  2544   007FE7  E0                 	db	224
  2545   007FE8  E0                 	db	224
  2546   007FE9  F0                 	db	240
  2547   007FEA  F0                 	db	240
  2548   007FEB  F0                 	db	240
  2549   007FEC  F8                 	db	248
  2550   007FED  FC                 	db	252
  2551   007FEE  FC                 	db	252
  2552   007FEF  FE                 	db	254
  2553   007FF0  FF                 	db	255
  2554   007FF1  FF                 	db	255
  2555   007FF2  FF                 	db	255
  2556   007FF3  FF                 	db	255
  2557   007FF4  FF                 	db	255
  2558   007FF5  FF                 	db	255
  2559   007FF6  FF                 	db	255
  2560   007FF7  FF                 	db	255
  2561   007FF8  FF                 	db	255
  2562   007FF9  FF                 	db	255
  2563   007FFA  FF                 	db	255
  2564   007FFB  FF                 	db	255
  2565   007FFC  FF                 	db	255
  2566   007FFD  FF                 	db	255
  2567   007FFE  FF                 	db	255
  2568   007FFF                     __end_of_tcb_b:
  2569                           	callstack 0
  2570   000F5E                     _ANSELD         set	3934
  2571   000F5C                     _ANSELB         set	3932
  2572   000F93                     _TRISB          set	3987
  2573   000F95                     _TRISD          set	3989
  2574   000F83                     _PORTD          set	3971
  2575   000F81                     _PORTB          set	3969
  2576   007FFF  00                 	db	0	; dummy byte at the end
  2577   000002                     __activetblptr  equ	2
  2578                           
  2579                           ; #config settings
  2580                           
  2581                           	psect	cinit
  2582   0076AA                     __pcinit:
  2583                           	callstack 0
  2584   0076AA                     start_initialization:
  2585                           	callstack 0
  2586   0076AA                     __initialization:
  2587                           	callstack 0
  2588   0076AA                     end_of_initialization:
  2589                           	callstack 0
  2590   0076AA                     __end_of__initialization:
  2591                           	callstack 0
  2592   0076AA  0E00               	movlw	low (__Lmediumconst shr (0+16))
  2593   0076AC  6EF8               	movwf	tblptru,c
  2594   0076AE  0100               	movlb	0
  2595   0076B0  EF9C  F03B         	goto	_main	;jump to C main() function
  2596                           
  2597                           	psect	cstackCOMRAM
  2598   000001                     __pcstackCOMRAM:
  2599                           	callstack 0
  2600   000001                     GLCD_CmdWrite@cmd:
  2601                           	callstack 0
  2602   000001                     GLCD_DataWrite@dat:
  2603                           	callstack 0
  2604   000001                     
  2605                           ; 1 bytes @ 0x0
  2606   000001                     	ds	1
  2607   000002                     ??_GLCD_Init:
  2608                           
  2609                           ; 1 bytes @ 0x1
  2610   000002                     	ds	1
  2611   000003                     ??_main:
  2612                           
  2613                           ; 1 bytes @ 0x2
  2614   000003                     	ds	2
  2615   000005                     main@i:
  2616                           	callstack 0
  2617                           
  2618                           ; 1 bytes @ 0x4
  2619   000005                     	ds	1
  2620   000006                     main@j:
  2621                           	callstack 0
  2622                           
  2623                           ; 1 bytes @ 0x5
  2624   000006                     	ds	1
  2625                           
  2626 ;;
  2627 ;;Main: autosize = 0, tempsize = 2, incstack = 0, save=0
  2628 ;;
  2629 ;; *************** function _main *****************
  2630 ;; Defined at:
  2631 ;;		line 132 in file "main.c"
  2632 ;; Parameters:    Size  Location     Type
  2633 ;;		None
  2634 ;; Auto vars:     Size  Location     Type
  2635 ;;  j               1    5[COMRAM] unsigned char 
  2636 ;;  i               1    4[COMRAM] unsigned char 
  2637 ;; Return value:  Size  Location     Type
  2638 ;;                  1    wreg      void 
  2639 ;; Registers used:
  2640 ;;		wreg, status,2, status,0, tblptrl, tblptrh, tblptru, prodl, prodh, cstack
  2641 ;; Tracked objects:
  2642 ;;		On entry : 0/0
  2643 ;;		On exit  : 0/0
  2644 ;;		Unchanged: 0/0
  2645 ;; Data sizes:     COMRAM   BANK0   BANK1   BANK2   BANK3   BANK4   BANK5   BANK6   BANK7
  2646 ;;      Params:         0       0       0       0       0       0       0       0       0
  2647 ;;      Locals:         2       0       0       0       0       0       0       0       0
  2648 ;;      Temps:          2       0       0       0       0       0       0       0       0
  2649 ;;      Totals:         4       0       0       0       0       0       0       0       0
  2650 ;;Total ram usage:        4 bytes
  2651 ;; Hardware stack levels required when called: 2
  2652 ;; This function calls:
  2653 ;;		_GLCD_CmdWrite
  2654 ;;		_GLCD_DataWrite
  2655 ;;		_GLCD_Init
  2656 ;;		_GLCD_SelectPage0
  2657 ;;		_GLCD_SelectPage1
  2658 ;; This function is called by:
  2659 ;;		Startup code after reset
  2660 ;; This function uses a non-reentrant model
  2661 ;;
  2662                           
  2663                           	psect	text0
  2664   007738                     __ptext0:
  2665                           	callstack 0
  2666   007738                     _main:
  2667                           	callstack 29
  2668   007738                     
  2669                           ;main.c: 134:  ANSELB = 0;
  2670   007738  010F               	movlb	15	; () banked
  2671   00773A  6B5C               	clrf	92,b	;volatile
  2672                           
  2673                           ;main.c: 135:  ANSELD = 0;
  2674   00773C  6B5E               	clrf	94,b	;volatile
  2675                           
  2676                           ;main.c: 136:  PORTB = 0;
  2677   00773E  6A81               	clrf	129,c	;volatile
  2678                           
  2679                           ;main.c: 137:  PORTD = 0;
  2680   007740  6A83               	clrf	131,c	;volatile
  2681                           
  2682                           ;main.c: 138:  TRISD = 0;
  2683   007742  6A95               	clrf	149,c	;volatile
  2684   007744                     
  2685                           ; BSR set to: 15
  2686                           ;main.c: 139:  TRISB = 0xC3U;
  2687   007744  0EC3               	movlw	195
  2688   007746  6E93               	movwf	147,c	;volatile
  2689   007748                     
  2690                           ; BSR set to: 15
  2691                           ;main.c: 141:  GLCD_Init();
  2692   007748  EC78  F03B         	call	_GLCD_Init	;wreg free
  2693   00774C                     
  2694                           ;main.c: 143:  uint8_t i, j;;main.c: 145:  for(i = 0; i < 8; i++)
  2695   00774C  6A05               	clrf	main@i^0,c
  2696   00774E                     l789:
  2697                           
  2698                           ;main.c: 146:  {;main.c: 147:   GLCD_SelectPage0();
  2699   00774E  EC4F  F03B         	call	_GLCD_SelectPage0	;wreg free
  2700   007752                     
  2701                           ;main.c: 148:   GLCD_CmdWrite(0xB8U | (i & 0x07U));
  2702   007752  5005               	movf	main@i^0,w,c
  2703   007754  0B07               	andlw	7
  2704   007756  09B8               	iorlw	184
  2705   007758  EC69  F03B         	call	_GLCD_CmdWrite
  2706   00775C                     
  2707                           ;main.c: 149:   for(j=0; j < 64; j++)
  2708   00775C  6A06               	clrf	main@j^0,c
  2709   00775E                     l799:
  2710                           
  2711                           ;main.c: 150:    GLCD_DataWrite(tcb_b[i][j]);
  2712   00775E  5005               	movf	main@i^0,w,c
  2713   007760  0D80               	mullw	128
  2714   007762  0EFF               	movlw	low _tcb_b
  2715   007764  24F3               	addwf	243,w,c
  2716   007766  6E03               	movwf	??_main^0,c
  2717   007768  0E7B               	movlw	high _tcb_b
  2718   00776A  20F4               	addwfc	prodh,w,c
  2719   00776C  6E04               	movwf	(??_main+1)^0,c
  2720   00776E  5006               	movf	main@j^0,w,c
  2721   007770  2603               	addwf	??_main^0,f,c
  2722   007772  0E00               	movlw	0
  2723   007774  2204               	addwfc	(??_main+1)^0,f,c
  2724   007776  C003  FFF6         	movff	??_main,tblptrl
  2725   00777A  C004  FFF7         	movff	??_main+1,tblptrh
  2726   00777E                     	if	0	;tblptru may be non-zero
  2727   00777E                     	endif
  2728   00777E                     	if	0	;tblptru may be non-zero
  2729   00777E                     	endif
  2730   00777E  0008               	tblrd		*
  2731   007780  50F5               	movf	tablat,w,c
  2732   007782  EC5A  F03B         	call	_GLCD_DataWrite
  2733   007786  2A06               	incf	main@j^0,f,c
  2734   007788  0E3F               	movlw	63
  2735   00778A  6406               	cpfsgt	main@j^0,c
  2736   00778C  EFCA  F03B         	goto	u11
  2737   007790  EFCC  F03B         	goto	u10
  2738   007794                     u11:
  2739   007794  EFAF  F03B         	goto	l799
  2740   007798                     u10:
  2741   007798                     
  2742                           ;main.c: 152:   GLCD_SelectPage1();
  2743   007798  EC52  F03B         	call	_GLCD_SelectPage1	;wreg free
  2744   00779C                     
  2745                           ;main.c: 153:   GLCD_CmdWrite(0xB8U | (i & 0x07U));
  2746   00779C  5005               	movf	main@i^0,w,c
  2747   00779E  0B07               	andlw	7
  2748   0077A0  09B8               	iorlw	184
  2749   0077A2  EC69  F03B         	call	_GLCD_CmdWrite
  2750   0077A6                     
  2751                           ;main.c: 154:   for(j=64; j < 128; j++)
  2752   0077A6  0E40               	movlw	64
  2753   0077A8  6E06               	movwf	main@j^0,c
  2754   0077AA                     l815:
  2755                           
  2756                           ;main.c: 155:    GLCD_DataWrite(tcb_b[i][j]);
  2757   0077AA  5005               	movf	main@i^0,w,c
  2758   0077AC  0D80               	mullw	128
  2759   0077AE  0EFF               	movlw	low _tcb_b
  2760   0077B0  24F3               	addwf	243,w,c
  2761   0077B2  6E03               	movwf	??_main^0,c
  2762   0077B4  0E7B               	movlw	high _tcb_b
  2763   0077B6  20F4               	addwfc	prodh,w,c
  2764   0077B8  6E04               	movwf	(??_main+1)^0,c
  2765   0077BA  5006               	movf	main@j^0,w,c
  2766   0077BC  2603               	addwf	??_main^0,f,c
  2767   0077BE  0E00               	movlw	0
  2768   0077C0  2204               	addwfc	(??_main+1)^0,f,c
  2769   0077C2  C003  FFF6         	movff	??_main,tblptrl
  2770   0077C6  C004  FFF7         	movff	??_main+1,tblptrh
  2771   0077CA                     	if	0	;tblptru may be non-zero
  2772   0077CA                     	endif
  2773   0077CA                     	if	0	;tblptru may be non-zero
  2774   0077CA                     	endif
  2775   0077CA  0008               	tblrd		*
  2776   0077CC  50F5               	movf	tablat,w,c
  2777   0077CE  EC5A  F03B         	call	_GLCD_DataWrite
  2778   0077D2  2A06               	incf	main@j^0,f,c
  2779   0077D4  0E7F               	movlw	127
  2780   0077D6  6406               	cpfsgt	main@j^0,c
  2781   0077D8  EFF0  F03B         	goto	u21
  2782   0077DC  EFF2  F03B         	goto	u20
  2783   0077E0                     u21:
  2784   0077E0  EFD5  F03B         	goto	l815
  2785   0077E4                     u20:
  2786   0077E4                     
  2787                           ;main.c: 156:  }
  2788   0077E4  2A05               	incf	main@i^0,f,c
  2789   0077E6  0E07               	movlw	7
  2790   0077E8  6405               	cpfsgt	main@i^0,c
  2791   0077EA  EFF9  F03B         	goto	u31
  2792   0077EE  EFFB  F03B         	goto	u30
  2793   0077F2                     u31:
  2794   0077F2  EFA7  F03B         	goto	l789
  2795   0077F6                     u30:
  2796   0077F6                     l58:
  2797   0077F6  EFFB  F03B         	goto	l58
  2798   0077FA  EF00  F000         	goto	start
  2799   0077FE                     __end_of_main:
  2800                           	callstack 0
  2801                           
  2802 ;; *************** function _GLCD_Init *****************
  2803 ;; Defined at:
  2804 ;;		line 46 in file "glcd.c"
  2805 ;; Parameters:    Size  Location     Type
  2806 ;;		None
  2807 ;; Auto vars:     Size  Location     Type
  2808 ;;		None
  2809 ;; Return value:  Size  Location     Type
  2810 ;;                  1    wreg      void 
  2811 ;; Registers used:
  2812 ;;		wreg, status,2, status,0, cstack
  2813 ;; Tracked objects:
  2814 ;;		On entry : 0/0
  2815 ;;		On exit  : 0/0
  2816 ;;		Unchanged: 0/0
  2817 ;; Data sizes:     COMRAM   BANK0   BANK1   BANK2   BANK3   BANK4   BANK5   BANK6   BANK7
  2818 ;;      Params:         0       0       0       0       0       0       0       0       0
  2819 ;;      Locals:         0       0       0       0       0       0       0       0       0
  2820 ;;      Temps:          1       0       0       0       0       0       0       0       0
  2821 ;;      Totals:         1       0       0       0       0       0       0       0       0
  2822 ;;Total ram usage:        1 bytes
  2823 ;; Hardware stack levels used: 1
  2824 ;; Hardware stack levels required when called: 1
  2825 ;; This function calls:
  2826 ;;		_GLCD_CmdWrite
  2827 ;;		_GLCD_SelectPage0
  2828 ;;		_GLCD_SelectPage1
  2829 ;; This function is called by:
  2830 ;;		_main
  2831 ;; This function uses a non-reentrant model
  2832 ;;
  2833                           
  2834                           	psect	text1
  2835   0076F0                     __ptext1:
  2836                           	callstack 0
  2837   0076F0                     _GLCD_Init:
  2838                           	callstack 29
  2839   0076F0                     
  2840                           ;glcd.c: 48:  _delay((unsigned long)((10)*(4000000UL/4000.0)));
  2841   0076F0  0E0D               	movlw	13
  2842   0076F2  6E02               	movwf	??_GLCD_Init^0,c
  2843   0076F4  0EFC               	movlw	252
  2844   0076F6                     u47:
  2845   0076F6  2EE8               	decfsz	wreg,f,c
  2846   0076F8  D7FE               	bra	u47
  2847   0076FA  2E02               	decfsz	??_GLCD_Init^0,f,c
  2848   0076FC  D7FC               	bra	u47
  2849   0076FE                     
  2850                           ;glcd.c: 49:  GLCD_SelectPage0();
  2851   0076FE  EC4F  F03B         	call	_GLCD_SelectPage0	;wreg free
  2852                           
  2853                           ;glcd.c: 50:  GLCD_CmdWrite(0x3FU);
  2854   007702  0E3F               	movlw	63
  2855   007704  EC69  F03B         	call	_GLCD_CmdWrite
  2856   007708                     
  2857                           ;glcd.c: 51:  GLCD_SelectPage1();
  2858   007708  EC52  F03B         	call	_GLCD_SelectPage1	;wreg free
  2859   00770C                     
  2860                           ;glcd.c: 52:  GLCD_CmdWrite(0x3FU);
  2861   00770C  0E3F               	movlw	63
  2862   00770E  EC69  F03B         	call	_GLCD_CmdWrite
  2863   007712                     
  2864                           ;glcd.c: 53:  _delay((unsigned long)((1)*(4000000UL/4000.0)));
  2865   007712  0EC8               	movlw	200
  2866   007714                     u57:
  2867   007714  D000               	nop2	
  2868   007716  2EE8               	decfsz	wreg,f,c
  2869   007718  D7FD               	bra	u57
  2870   00771A                     
  2871                           ;glcd.c: 55:  GLCD_SelectPage0();
  2872   00771A  EC4F  F03B         	call	_GLCD_SelectPage0	;wreg free
  2873   00771E                     
  2874                           ;glcd.c: 56:  GLCD_CmdWrite(0xC0U);
  2875   00771E  0EC0               	movlw	192
  2876   007720  EC69  F03B         	call	_GLCD_CmdWrite
  2877                           
  2878                           ;glcd.c: 57:  GLCD_SelectPage1();
  2879   007724  EC52  F03B         	call	_GLCD_SelectPage1	;wreg free
  2880   007728                     
  2881                           ;glcd.c: 58:  GLCD_CmdWrite(0xC0U);
  2882   007728  0EC0               	movlw	192
  2883   00772A  EC69  F03B         	call	_GLCD_CmdWrite
  2884                           
  2885                           ;glcd.c: 59:  _delay((unsigned long)((1)*(4000000UL/4000.0)));
  2886   00772E  0EC8               	movlw	200
  2887   007730                     u67:
  2888   007730  D000               	nop2	
  2889   007732  2EE8               	decfsz	wreg,f,c
  2890   007734  D7FD               	bra	u67
  2891   007736  0012               	return		;funcret
  2892   007738                     __end_of_GLCD_Init:
  2893                           	callstack 0
  2894                           
  2895 ;; *************** function _GLCD_SelectPage1 *****************
  2896 ;; Defined at:
  2897 ;;		line 21 in file "glcd.c"
  2898 ;; Parameters:    Size  Location     Type
  2899 ;;		None
  2900 ;; Auto vars:     Size  Location     Type
  2901 ;;		None
  2902 ;; Return value:  Size  Location     Type
  2903 ;;                  1    wreg      void 
  2904 ;; Registers used:
  2905 ;;		status,2, status,0
  2906 ;; Tracked objects:
  2907 ;;		On entry : 0/0
  2908 ;;		On exit  : 0/0
  2909 ;;		Unchanged: 0/0
  2910 ;; Data sizes:     COMRAM   BANK0   BANK1   BANK2   BANK3   BANK4   BANK5   BANK6   BANK7
  2911 ;;      Params:         0       0       0       0       0       0       0       0       0
  2912 ;;      Locals:         0       0       0       0       0       0       0       0       0
  2913 ;;      Temps:          0       0       0       0       0       0       0       0       0
  2914 ;;      Totals:         0       0       0       0       0       0       0       0       0
  2915 ;;Total ram usage:        0 bytes
  2916 ;; Hardware stack levels used: 1
  2917 ;; This function calls:
  2918 ;;		Nothing
  2919 ;; This function is called by:
  2920 ;;		_GLCD_Init
  2921 ;;		_main
  2922 ;; This function uses a non-reentrant model
  2923 ;;
  2924                           
  2925                           	psect	text2
  2926   0076A4                     __ptext2:
  2927                           	callstack 0
  2928   0076A4                     _GLCD_SelectPage1:
  2929                           	callstack 30
  2930   0076A4                     
  2931                           ;glcd.c: 23:  PORTB &= ~0x10U;
  2932   0076A4  9881               	bcf	129,4,c	;volatile
  2933                           
  2934                           ;glcd.c: 24:  PORTB |= 0x20U;
  2935   0076A6  8A81               	bsf	129,5,c	;volatile
  2936   0076A8  0012               	return		;funcret
  2937   0076AA                     __end_of_GLCD_SelectPage1:
  2938                           	callstack 0
  2939                           
  2940 ;; *************** function _GLCD_SelectPage0 *****************
  2941 ;; Defined at:
  2942 ;;		line 15 in file "glcd.c"
  2943 ;; Parameters:    Size  Location     Type
  2944 ;;		None
  2945 ;; Auto vars:     Size  Location     Type
  2946 ;;		None
  2947 ;; Return value:  Size  Location     Type
  2948 ;;                  1    wreg      void 
  2949 ;; Registers used:
  2950 ;;		status,2, status,0
  2951 ;; Tracked objects:
  2952 ;;		On entry : 0/0
  2953 ;;		On exit  : 0/0
  2954 ;;		Unchanged: 0/0
  2955 ;; Data sizes:     COMRAM   BANK0   BANK1   BANK2   BANK3   BANK4   BANK5   BANK6   BANK7
  2956 ;;      Params:         0       0       0       0       0       0       0       0       0
  2957 ;;      Locals:         0       0       0       0       0       0       0       0       0
  2958 ;;      Temps:          0       0       0       0       0       0       0       0       0
  2959 ;;      Totals:         0       0       0       0       0       0       0       0       0
  2960 ;;Total ram usage:        0 bytes
  2961 ;; Hardware stack levels used: 1
  2962 ;; This function calls:
  2963 ;;		Nothing
  2964 ;; This function is called by:
  2965 ;;		_GLCD_Init
  2966 ;;		_main
  2967 ;; This function uses a non-reentrant model
  2968 ;;
  2969                           
  2970                           	psect	text3
  2971   00769E                     __ptext3:
  2972                           	callstack 0
  2973   00769E                     _GLCD_SelectPage0:
  2974                           	callstack 30
  2975   00769E                     
  2976                           ;glcd.c: 17:  PORTB &= ~0x20U;
  2977   00769E  9A81               	bcf	129,5,c	;volatile
  2978                           
  2979                           ;glcd.c: 18:  PORTB |= 0x10U;
  2980   0076A0  8881               	bsf	129,4,c	;volatile
  2981   0076A2  0012               	return		;funcret
  2982   0076A4                     __end_of_GLCD_SelectPage0:
  2983                           	callstack 0
  2984                           
  2985 ;; *************** function _GLCD_CmdWrite *****************
  2986 ;; Defined at:
  2987 ;;		line 27 in file "glcd.c"
  2988 ;; Parameters:    Size  Location     Type
  2989 ;;  cmd             1    wreg     unsigned char 
  2990 ;; Auto vars:     Size  Location     Type
  2991 ;;  cmd             1    0[COMRAM] unsigned char 
  2992 ;; Return value:  Size  Location     Type
  2993 ;;                  1    wreg      void 
  2994 ;; Registers used:
  2995 ;;		wreg, status,2, status,0
  2996 ;; Tracked objects:
  2997 ;;		On entry : 0/0
  2998 ;;		On exit  : 0/0
  2999 ;;		Unchanged: 0/0
  3000 ;; Data sizes:     COMRAM   BANK0   BANK1   BANK2   BANK3   BANK4   BANK5   BANK6   BANK7
  3001 ;;      Params:         0       0       0       0       0       0       0       0       0
  3002 ;;      Locals:         1       0       0       0       0       0       0       0       0
  3003 ;;      Temps:          0       0       0       0       0       0       0       0       0
  3004 ;;      Totals:         1       0       0       0       0       0       0       0       0
  3005 ;;Total ram usage:        1 bytes
  3006 ;; Hardware stack levels used: 1
  3007 ;; This function calls:
  3008 ;;		Nothing
  3009 ;; This function is called by:
  3010 ;;		_GLCD_Init
  3011 ;;		_main
  3012 ;; This function uses a non-reentrant model
  3013 ;;
  3014                           
  3015                           	psect	text4
  3016   0076D2                     __ptext4:
  3017                           	callstack 0
  3018   0076D2                     _GLCD_CmdWrite:
  3019                           	callstack 29
  3020                           
  3021                           ;incstack = 0
  3022                           ;GLCD_CmdWrite@cmd stored from wreg
  3023   0076D2  6E01               	movwf	GLCD_CmdWrite@cmd^0,c
  3024   0076D4                     
  3025                           ;glcd.c: 27: void GLCD_CmdWrite(uint8_t cmd);glcd.c: 28: {;glcd.c: 29:  PORTD = cmd;
  3026   0076D4  C001  FF83         	movff	GLCD_CmdWrite@cmd,3971	;volatile
  3027   0076D8                     
  3028                           ;glcd.c: 30:  PORTB &= ~0x04U;
  3029   0076D8  9481               	bcf	129,2,c	;volatile
  3030   0076DA                     
  3031                           ;glcd.c: 31:  PORTB |= 0x08U;
  3032   0076DA  8681               	bsf	129,3,c	;volatile
  3033   0076DC                     
  3034                           ;glcd.c: 32:  _delay((unsigned long)((500)*(4000000UL/4000000.0)));
  3035   0076DC  0EA6               	movlw	166
  3036   0076DE                     u77:
  3037   0076DE  2EE8               	decfsz	wreg,f,c
  3038   0076E0  D7FE               	bra	u77
  3039   0076E2  D000               	nop2	
  3040   0076E4                     
  3041                           ;glcd.c: 33:  PORTB &= ~0x08U;
  3042   0076E4  9681               	bcf	129,3,c	;volatile
  3043   0076E6                     
  3044                           ;glcd.c: 34:  _delay((unsigned long)((500)*(4000000UL/4000000.0)));
  3045   0076E6  0EA6               	movlw	166
  3046   0076E8                     u87:
  3047   0076E8  2EE8               	decfsz	wreg,f,c
  3048   0076EA  D7FE               	bra	u87
  3049   0076EC  D000               	nop2	
  3050   0076EE  0012               	return		;funcret
  3051   0076F0                     __end_of_GLCD_CmdWrite:
  3052                           	callstack 0
  3053                           
  3054 ;; *************** function _GLCD_DataWrite *****************
  3055 ;; Defined at:
  3056 ;;		line 37 in file "glcd.c"
  3057 ;; Parameters:    Size  Location     Type
  3058 ;;  dat             1    wreg     unsigned char 
  3059 ;; Auto vars:     Size  Location     Type
  3060 ;;  dat             1    0[COMRAM] unsigned char 
  3061 ;; Return value:  Size  Location     Type
  3062 ;;                  1    wreg      void 
  3063 ;; Registers used:
  3064 ;;		wreg, status,2, status,0
  3065 ;; Tracked objects:
  3066 ;;		On entry : 0/0
  3067 ;;		On exit  : 0/0
  3068 ;;		Unchanged: 0/0
  3069 ;; Data sizes:     COMRAM   BANK0   BANK1   BANK2   BANK3   BANK4   BANK5   BANK6   BANK7
  3070 ;;      Params:         0       0       0       0       0       0       0       0       0
  3071 ;;      Locals:         1       0       0       0       0       0       0       0       0
  3072 ;;      Temps:          0       0       0       0       0       0       0       0       0
  3073 ;;      Totals:         1       0       0       0       0       0       0       0       0
  3074 ;;Total ram usage:        1 bytes
  3075 ;; Hardware stack levels used: 1
  3076 ;; This function calls:
  3077 ;;		Nothing
  3078 ;; This function is called by:
  3079 ;;		_main
  3080 ;; This function uses a non-reentrant model
  3081 ;;
  3082                           
  3083                           	psect	text5
  3084   0076B4                     __ptext5:
  3085                           	callstack 0
  3086   0076B4                     _GLCD_DataWrite:
  3087                           	callstack 30
  3088                           
  3089                           ;incstack = 0
  3090                           ;GLCD_DataWrite@dat stored from wreg
  3091   0076B4  6E01               	movwf	GLCD_DataWrite@dat^0,c
  3092   0076B6                     
  3093                           ;glcd.c: 37: void GLCD_DataWrite(uint8_t dat);glcd.c: 38: {;glcd.c: 39:  PORTD = dat;
  3094   0076B6  C001  FF83         	movff	GLCD_DataWrite@dat,3971	;volatile
  3095   0076BA                     
  3096                           ;glcd.c: 40:  PORTB |= 0x04U | 0x08U;
  3097   0076BA  0E0C               	movlw	12
  3098   0076BC  1281               	iorwf	129,f,c	;volatile
  3099   0076BE                     
  3100                           ;glcd.c: 41:  _delay((unsigned long)((500)*(4000000UL/4000000.0)));
  3101   0076BE  0EA6               	movlw	166
  3102   0076C0                     u97:
  3103   0076C0  2EE8               	decfsz	wreg,f,c
  3104   0076C2  D7FE               	bra	u97
  3105   0076C4  D000               	nop2	
  3106   0076C6                     
  3107                           ;glcd.c: 42:  PORTB &= ~0x08U;
  3108   0076C6  9681               	bcf	129,3,c	;volatile
  3109                           
  3110                           ;glcd.c: 43:  _delay((unsigned long)((500)*(4000000UL/4000000.0)));
  3111   0076C8  0EA6               	movlw	166
  3112   0076CA                     u107:
  3113   0076CA  2EE8               	decfsz	wreg,f,c
  3114   0076CC  D7FE               	bra	u107
  3115   0076CE  D000               	nop2	
  3116   0076D0  0012               	return		;funcret
  3117   0076D2                     __end_of_GLCD_DataWrite:
  3118                           	callstack 0
  3119                           
  3120                           	psect	rparam
  3121   000001                     ___rparam_used  equ	1
  3122   000000                     ___param_bank   equ	0
  3123   000000                     __Lparam        equ	__Lrparam
  3124   000000                     __Hparam        equ	__Hrparam
  3125                           
  3126                           	psect	config
  3127                           
  3128                           ;Config register CONFIG1L @ 0x300000
  3129                           ;	PLL Selection
  3130                           ;	PLLSEL = PLL4X, 4x clock multiplier
  3131                           ;	PLL Enable Configuration bit
  3132                           ;	CFGPLLEN = OFF, PLL Disabled (firmware controlled)
  3133                           ;	CPU System Clock Postscaler
  3134                           ;	CPUDIV = NOCLKDIV, CPU uses system clock (no divide)
  3135                           ;	Low Speed USB mode with 48 MHz system clock
  3136                           ;	LS48MHZ = SYS24X4, System clock at 24 MHz, USB clock divider is set to 4
  3137   300000                     	org	3145728
  3138   300000  00                 	db	0
  3139                           
  3140                           ;Config register CONFIG1H @ 0x300001
  3141                           ;	Oscillator Selection
  3142                           ;	FOSC = XT, XT oscillator
  3143                           ;	Primary Oscillator Shutdown
  3144                           ;	PCLKEN = ON, Primary oscillator enabled
  3145                           ;	Fail-Safe Clock Monitor
  3146                           ;	FCMEN = OFF, Fail-Safe Clock Monitor disabled
  3147                           ;	Internal/External Oscillator Switchover
  3148                           ;	IESO = OFF, Oscillator Switchover mode disabled
  3149   300001                     	org	3145729
  3150   300001  21                 	db	33
  3151                           
  3152                           ;Config register CONFIG2L @ 0x300002
  3153                           ;	Power-up Timer Enable
  3154                           ;	nPWRTEN = OFF, Power up timer disabled
  3155                           ;	Brown-out Reset Enable
  3156                           ;	BOREN = SBORDIS, BOR enabled in hardware (SBOREN is ignored)
  3157                           ;	Brown-out Reset Voltage
  3158                           ;	BORV = 190, BOR set to 1.9V nominal
  3159                           ;	Low-Power Brown-out Reset
  3160                           ;	nLPBOR = OFF, Low-Power Brown-out Reset disabled
  3161   300002                     	org	3145730
  3162   300002  5F                 	db	95
  3163                           
  3164                           ;Config register CONFIG2H @ 0x300003
  3165                           ;	Watchdog Timer Enable bits
  3166                           ;	WDTEN = OFF, WDT disabled in hardware (SWDTEN ignored)
  3167                           ;	Watchdog Timer Postscaler
  3168                           ;	WDTPS = 32768, 1:32768
  3169   300003                     	org	3145731
  3170   300003  3C                 	db	60
  3171                           
  3172                           ; Padding undefined space
  3173   300004                     	org	3145732
  3174   300004  FF                 	db	255
  3175                           
  3176                           ;Config register CONFIG3H @ 0x300005
  3177                           ;	CCP2 MUX bit
  3178                           ;	CCP2MX = RC1, CCP2 input/output is multiplexed with RC1
  3179                           ;	PORTB A/D Enable bit
  3180                           ;	PBADEN = ON, PORTB<5:0> pins are configured as analog input channels on Reset
  3181                           ;	Timer3 Clock Input MUX bit
  3182                           ;	T3CMX = RC0, T3CKI function is on RC0
  3183                           ;	SDO Output MUX bit
  3184                           ;	SDOMX = RB3, SDO function is on RB3
  3185                           ;	Master Clear Reset Pin Enable
  3186                           ;	MCLRE = ON, MCLR pin enabled; RE3 input disabled
  3187   300005                     	org	3145733
  3188   300005  D3                 	db	211
  3189                           
  3190                           ;Config register CONFIG4L @ 0x300006
  3191                           ;	Stack Full/Underflow Reset
  3192                           ;	STVREN = ON, Stack full/underflow will cause Reset
  3193                           ;	Single-Supply ICSP Enable bit
  3194                           ;	LVP = OFF, Single-Supply ICSP disabled
  3195                           ;	Dedicated In-Circuit Debug/Programming Port Enable
  3196                           ;	ICPRT = OFF, ICPORT disabled
  3197                           ;	Extended Instruction Set Enable bit
  3198                           ;	XINST = OFF, Instruction set extension and Indexed Addressing mode disabled
  3199                           ;	Background Debugger Enable bit
  3200                           ;	DEBUG = 0x1, unprogrammed default
  3201   300006                     	org	3145734
  3202   300006  81                 	db	129
  3203                           
  3204                           ; Padding undefined space
  3205   300007                     	org	3145735
  3206   300007  FF                 	db	255
  3207                           
  3208                           ;Config register CONFIG5L @ 0x300008
  3209                           ;	Block 0 Code Protect
  3210                           ;	CP0 = OFF, Block 0 is not code-protected
  3211                           ;	Block 1 Code Protect
  3212                           ;	CP1 = OFF, Block 1 is not code-protected
  3213                           ;	Block 2 Code Protect
  3214                           ;	CP2 = OFF, Block 2 is not code-protected
  3215                           ;	Block 3 Code Protect
  3216                           ;	CP3 = OFF, Block 3 is not code-protected
  3217   300008                     	org	3145736
  3218   300008  0F                 	db	15
  3219                           
  3220                           ;Config register CONFIG5H @ 0x300009
  3221                           ;	Boot Block Code Protect
  3222                           ;	CPB = OFF, Boot block is not code-protected
  3223                           ;	Data EEPROM Code Protect
  3224                           ;	CPD = OFF, Data EEPROM is not code-protected
  3225   300009                     	org	3145737
  3226   300009  C0                 	db	192
  3227                           
  3228                           ;Config register CONFIG6L @ 0x30000A
  3229                           ;	Block 0 Write Protect
  3230                           ;	WRT0 = OFF, Block 0 (0800-1FFFh) is not write-protected
  3231                           ;	Block 1 Write Protect
  3232                           ;	WRT1 = OFF, Block 1 (2000-3FFFh) is not write-protected
  3233                           ;	Block 2 Write Protect
  3234                           ;	WRT2 = OFF, Block 2 (04000-5FFFh) is not write-protected
  3235                           ;	Block 3 Write Protect
  3236                           ;	WRT3 = OFF, Block 3 (06000-7FFFh) is not write-protected
  3237   30000A                     	org	3145738
  3238   30000A  0F                 	db	15
  3239                           
  3240                           ;Config register CONFIG6H @ 0x30000B
  3241                           ;	Configuration Registers Write Protect
  3242                           ;	WRTC = OFF, Configuration registers (300000-3000FFh) are not write-protected
  3243                           ;	Boot Block Write Protect
  3244                           ;	WRTB = OFF, Boot block (0000-7FFh) is not write-protected
  3245                           ;	Data EEPROM Write Protect
  3246                           ;	WRTD = OFF, Data EEPROM is not write-protected
  3247   30000B                     	org	3145739
  3248   30000B  E0                 	db	224
  3249                           
  3250                           ;Config register CONFIG7L @ 0x30000C
  3251                           ;	Block 0 Table Read Protect
  3252                           ;	EBTR0 = OFF, Block 0 is not protected from table reads executed in other blocks
  3253                           ;	Block 1 Table Read Protect
  3254                           ;	EBTR1 = OFF, Block 1 is not protected from table reads executed in other blocks
  3255                           ;	Block 2 Table Read Protect
  3256                           ;	EBTR2 = OFF, Block 2 is not protected from table reads executed in other blocks
  3257                           ;	Block 3 Table Read Protect
  3258                           ;	EBTR3 = OFF, Block 3 is not protected from table reads executed in other blocks
  3259   30000C                     	org	3145740
  3260   30000C  0F                 	db	15
  3261                           
  3262                           ;Config register CONFIG7H @ 0x30000D
  3263                           ;	Boot Block Table Read Protect
  3264                           ;	EBTRB = OFF, Boot block is not protected from table reads executed in other blocks
  3265   30000D                     	org	3145741
  3266   30000D  40                 	db	64
  3267                           tosu	equ	0xFFF
  3268                           tosh	equ	0xFFE
  3269                           tosl	equ	0xFFD
  3270                           stkptr	equ	0xFFC
  3271                           pclatu	equ	0xFFB
  3272                           pclath	equ	0xFFA
  3273                           pcl	equ	0xFF9
  3274                           tblptru	equ	0xFF8
  3275                           tblptrh	equ	0xFF7
  3276                           tblptrl	equ	0xFF6
  3277                           tablat	equ	0xFF5
  3278                           prodh	equ	0xFF4
  3279                           prodl	equ	0xFF3
  3280                           indf0	equ	0xFEF
  3281                           postinc0	equ	0xFEE
  3282                           postdec0	equ	0xFED
  3283                           preinc0	equ	0xFEC
  3284                           plusw0	equ	0xFEB
  3285                           fsr0h	equ	0xFEA
  3286                           fsr0l	equ	0xFE9
  3287                           wreg	equ	0xFE8
  3288                           indf1	equ	0xFE7
  3289                           postinc1	equ	0xFE6
  3290                           postdec1	equ	0xFE5
  3291                           preinc1	equ	0xFE4
  3292                           plusw1	equ	0xFE3
  3293                           fsr1h	equ	0xFE2
  3294                           fsr1l	equ	0xFE1
  3295                           bsr	equ	0xFE0
  3296                           indf2	equ	0xFDF
  3297                           postinc2	equ	0xFDE
  3298                           postdec2	equ	0xFDD
  3299                           preinc2	equ	0xFDC
  3300                           plusw2	equ	0xFDB
  3301                           fsr2h	equ	0xFDA
  3302                           fsr2l	equ	0xFD9
  3303                           status	equ	0xFD8

Data Sizes:
    Strings     0
    Constant    2048
    Data        0
    BSS         0
    Persistent  0
    Stack       0

Auto Spaces:
    Space          Size  Autos    Used
    COMRAM           95      6       6
    BANK0           160      0       0
    BANK1           256      0       0
    BANK2           256      0       0
    BANK3           256      0       0
    BANK4           256      0       0
    BANK5           256      0       0
    BANK6           256      0       0
    BANK7           256      0       0

Pointer List with Targets:

    None.

Critical Paths under _main in COMRAM

    _main->_GLCD_Init
    _GLCD_Init->_GLCD_CmdWrite

Critical Paths under _main in BANK0

    None.

Critical Paths under _main in BANK1

    None.

Critical Paths under _main in BANK2

    None.

Critical Paths under _main in BANK3

    None.

Critical Paths under _main in BANK4

    None.

Critical Paths under _main in BANK5

    None.

Critical Paths under _main in BANK6

    None.

Critical Paths under _main in BANK7

    None.

Call Graph Tables:

 ---------------------------------------------------------------------------------
 (Depth) Function   	        Calls       Base Space   Used Autos Params    Refs
 ---------------------------------------------------------------------------------
 (0) _main                                                 4     4      0     225
                                              2 COMRAM     4     4      0
                      _GLCD_CmdWrite
                     _GLCD_DataWrite
                          _GLCD_Init
                   _GLCD_SelectPage0
                   _GLCD_SelectPage1
 ---------------------------------------------------------------------------------
 (1) _GLCD_Init                                            1     1      0      15
                                              1 COMRAM     1     1      0
                      _GLCD_CmdWrite
                   _GLCD_SelectPage0
                   _GLCD_SelectPage1
 ---------------------------------------------------------------------------------
 (1) _GLCD_SelectPage1                                     0     0      0       0
 ---------------------------------------------------------------------------------
 (1) _GLCD_SelectPage0                                     0     0      0       0
 ---------------------------------------------------------------------------------
 (2) _GLCD_CmdWrite                                        1     1      0      15
                                              0 COMRAM     1     1      0
 ---------------------------------------------------------------------------------
 (1) _GLCD_DataWrite                                       1     1      0      15
                                              0 COMRAM     1     1      0
 ---------------------------------------------------------------------------------
 Estimated maximum stack depth 2
 ---------------------------------------------------------------------------------

 Call Graph Graphs:

 _main (ROOT)
   _GLCD_CmdWrite
   _GLCD_DataWrite
   _GLCD_Init
     _GLCD_CmdWrite
     _GLCD_SelectPage0
     _GLCD_SelectPage1
   _GLCD_SelectPage0
   _GLCD_SelectPage1

Address spaces:
Name               Size   Autos  Total    Usage
BITCOMRAM           95      0       0      0.0%
BITBANK0           160      0       0      0.0%
BITBANK1           256      0       0      0.0%
BITBANK2           256      0       0      0.0%
BITBANK3           256      0       0      0.0%
BITBANK4           256      0       0      0.0%
BITBANK5           256      0       0      0.0%
BITBANK6           256      0       0      0.0%
BITBANK7           256      0       0      0.0%
BITBIGSFRh         126      0       0      0.0%
BITBIGSFRlh         36      0       0      0.0%
BITBIGSFRll          9      0       0      0.0%
COMRAM              95      6       6      6.3%
BANK0              160      0       0      0.0%
BANK1              256      0       0      0.0%
BANK2              256      0       0      0.0%
BANK3              256      0       0      0.0%
BANK4              256      0       0      0.0%
BANK5              256      0       0      0.0%
BANK6              256      0       0      0.0%
BANK7              256      0       0      0.0%
BIGRAM            2047      0       0      0.0%
STACK                0      0       0      0.0%
DATA                 0      0       6      0.0%


Microchip Technology PIC18 Macro Assembler V2.50 build 20240725155939 
Symbol Table                                                                                   Sat Oct  5 23:31:31 2024

                       l9 76A2                        l12 76A8                        l21 7736  
                      l15 76EE                        l18 76D0                        l58 77F6  
                      u10 7798                        u11 7794                        u20 77E4  
                      u21 77E0                        u30 77F6                        u31 77F2  
                      u47 76F6                        u57 7714                        u67 7730  
                      u77 76DE                        u87 76E8                        u97 76C0  
                     l801 7786                       l803 7788                       l741 76D4  
                     l821 77E4                       l805 7798                       l751 76E6  
                     l743 76D8                       l823 77E6                       l815 77AA  
                     l807 779C                       l753 76B6                       l745 76DA  
                     l737 769E                       l761 76F0                       l817 77D2  
                     l809 77A6                       l755 76BA                       l747 76DC  
                     l739 76A4                       l771 771A                       l763 76FE  
                     l819 77D4                       l757 76BE                       l749 76E4  
                     l773 771E                       l765 7708                       l781 7748  
                     l759 76C6                       l775 7728                       l767 770C  
                     l791 7752                       l783 774C                       l769 7712  
                     l793 775C                       l777 7738                       l779 7744  
                     l789 774E                       l799 775E                       u107 76CA  
                     prod 0FF3                       wreg 0FE8                      _main 7738  
                    prodl 0FF3                      start 0000              ___param_bank 0000  
                   ?_main 0001                     _PORTB 0F81                     _PORTD 0F83  
                   _TRISB 0F93                     _TRISD 0F95                     _tcb_b 7BFF  
                   _tcb_n 77FF                     main@i 0005                     main@j 0006  
                   tablat 0FF5           __initialization 76AA              __end_of_main 77FE  
       __end_of_GLCD_Init 7738                    ??_main 0003             __activetblptr 0002  
                  _ANSELB 0F5C                    _ANSELD 0F5E                    isa$std 0001  
            __mediumconst 77FE                    tblptrh 0FF7                    tblptrl 0FF6  
                  tblptru 0FF8  __end_of_GLCD_SelectPage0 76A4  __end_of_GLCD_SelectPage1 76AA  
   __end_of_GLCD_CmdWrite 76F0                __accesstop 0060   __end_of__initialization 76AA  
       GLCD_DataWrite@dat 0001             ___rparam_used 0001            __pcstackCOMRAM 0001  
           __end_of_tcb_b 7FFF             __end_of_tcb_n 7BFF                   __Hparam 0000  
                 __Lparam 0000                   __pcinit 76AA                   __ramtop 0800  
                 __ptext0 7738                   __ptext1 76F0                   __ptext2 76A4  
                 __ptext3 769E                   __ptext4 76D2                   __ptext5 76B4  
               _GLCD_Init 76F0            _GLCD_DataWrite 76B4      end_of_initialization 76AA  
           __Lmediumconst 77FE                ?_GLCD_Init 0001    __end_of_GLCD_DataWrite 76D2  
       ?_GLCD_SelectPage0 0001         ?_GLCD_SelectPage1 0001        ??_GLCD_SelectPage0 0001  
      ??_GLCD_SelectPage1 0001           ?_GLCD_DataWrite 0001       start_initialization 76AA  
             ??_GLCD_Init 0002          GLCD_CmdWrite@cmd 0001             __pmediumconst 77FE  
           _GLCD_CmdWrite 76D2            ?_GLCD_CmdWrite 0001                  __Hrparam 0000  
                __Lrparam 0000          ??_GLCD_DataWrite 0001                  isa$xinst 0000  
         ??_GLCD_CmdWrite 0001          _GLCD_SelectPage0 769E          _GLCD_SelectPage1 76A4  
